Component: ARM Compiler 5.06 update 6 (build 750) Tool: armlink [4d35ed]

==============================================================================

Section Cross References

    main.o(.text) refers to _printf_percent.o(.ARM.Collect$$_printf_percent$$00000000) for _printf_percent
    main.o(.text) refers to _printf_d.o(.ARM.Collect$$_printf_percent$$00000009) for _printf_d
    main.o(.text) refers to _printf_dec.o(.text) for _printf_int_dec
    main.o(.text) refers to _printf_pad.o(.text) for _printf_pre_padding
    main.o(.text) refers to iwdg.o(.text) for iwdg_feed
    main.o(.text) refers to cpu_a.o(.text) for CPU_SR_Save
    main.o(.text) refers to utils.o(.text) for gps_from_message
    main.o(.text) refers to usart1.o(.text) for usart1_printf
    main.o(.text) refers to rt_memcpy_w.o(.text) for __aeabi_memcpy4
    main.o(.text) refers to os_sem.o(.text) for OSSemPost
    main.o(.text) refers to os_core.o(.text) for OS_Sched0
    main.o(.text) refers to os_time.o(.text) for OSTimeDlyHMSM
    main.o(.text) refers to gps.o(.text) for gps_get_info
    main.o(.text) refers to hmc5883l.o(.text) for hmc5883l_get_angle
    main.o(.text) refers to dflt_clz.o(x$fpl$dfltu) for __aeabi_ui2d
    main.o(.text) refers to daddsub_clz.o(x$fpl$dadd) for __aeabi_dadd
    main.o(.text) refers to dfixu.o(x$fpl$dfixu) for __aeabi_d2uiz
    main.o(.text) refers to led.o(.text) for led_set_light_angle
    main.o(.text) refers to d2f.o(x$fpl$d2f) for __aeabi_d2f
    main.o(.text) refers to oled.o(.text) for oled_clear
    main.o(.text) refers to drleqf.o(x$fpl$drleqf) for __aeabi_cdrcmple
    main.o(.text) refers to dfix.o(x$fpl$dfix) for __aeabi_d2iz
    main.o(.text) refers to dmul.o(x$fpl$dmul) for __aeabi_dmul
    main.o(.text) refers to dleqf.o(x$fpl$dleqf) for __aeabi_cdcmple
    main.o(.text) refers to __2sprintf.o(.text) for __2sprintf
    main.o(.text) refers to faddsub_clz.o(x$fpl$fsub) for __aeabi_fsub
    main.o(.text) refers to faddsub_clz.o(x$fpl$fadd) for __aeabi_fadd
    main.o(.text) refers to ffix.o(x$fpl$ffix) for __aeabi_f2iz
    main.o(.text) refers to main.o(.data) for .data
    main.o(.text) refers to main.o(.bss) for .bss
    main.o(.text) refers to os_var.o(.data) for OSSchedLockNestingCtr
    main.o(.text) refers to usart1.o(.bss) for hc14_receive_message
    main.o(.text) refers to os_var.o(.data) for OSIntQNbrEntries
    main.o(.text) refers to esp8266.o(.text) for esp8266_connect_mqtt
    main.o(.text) refers to cpu_core.o(.text) for CPU_Init
    main.o(.text) refers to os_stat.o(.text) for OSStatTaskCPUUsageInit
    main.o(.text) refers to os_task.o(.text) for OSTaskCreate
    main.o(.text) refers to misc.o(.text) for NVIC_PriorityGroupConfig
    main.o(.text) refers to system_stm32f10x.o(.text) for SystemInit
    main.o(.text) refers to delay.o(.text) for delay_init
    main.o(.text) refers to usart3.o(.data) for mqtt_connect_state
    main.o(.text) refers to usart3.o(.bss) for mqtt_receive_message
    system_stm32f10x.o(.text) refers to system_stm32f10x.o(.data) for .data
    led.o(.text) refers to stm32f10x_rcc.o(.text) for RCC_APB2PeriphClockCmd
    led.o(.text) refers to stm32f10x_gpio.o(.text) for GPIO_Init
    led.o(.text) refers to led.o(.constdata) for .constdata
    oled.o(.text) refers to iic.o(.text) for iic_send_data
    oled.o(.text) refers to delay.o(.text) for delay_ms
    oled.o(.text) refers to oled.o(.constdata) for .constdata
    oled.o(.text) refers to oled.o(.data) for .data
    iic.o(.text) refers to stm32f10x_gpio.o(.text) for GPIO_ReadInputDataBit
    iic.o(.text) refers to delay.o(.text) for delay_us
    iic.o(.text) refers to stm32f10x_rcc.o(.text) for RCC_APB2PeriphClockCmd
    iic.o(.text) refers to os_core.o(.text) for OSIntEnter
    iic.o(.text) refers to __2printf.o(.text) for __2printf
    esp8266.o(.text) refers to _printf_percent.o(.ARM.Collect$$_printf_percent$$00000000) for _printf_percent
    esp8266.o(.text) refers to _printf_s.o(.ARM.Collect$$_printf_percent$$00000014) for _printf_s
    esp8266.o(.text) refers to _printf_str.o(.text) for _printf_str
    esp8266.o(.text) refers to _printf_d.o(.ARM.Collect$$_printf_percent$$00000009) for _printf_d
    esp8266.o(.text) refers to _printf_dec.o(.text) for _printf_int_dec
    esp8266.o(.text) refers to rt_memclr.o(.text) for __aeabi_memclr
    esp8266.o(.text) refers to usart3.o(.text) for usart3_send_string
    esp8266.o(.text) refers to strstr.o(.text) for strstr
    esp8266.o(.text) refers to __2printf.o(.text) for __2printf
    esp8266.o(.text) refers to delay.o(.text) for delay_us
    esp8266.o(.text) refers to strtok.o(.text) for strtok
    esp8266.o(.text) refers to strcpy.o(.text) for strcpy
    esp8266.o(.text) refers to strcat.o(.text) for strcat
    esp8266.o(.text) refers to __2sprintf.o(.text) for __2sprintf
    esp8266.o(.text) refers to rt_memclr_w.o(.text) for __aeabi_memclr4
    esp8266.o(.text) refers to os_time.o(.text) for OSTimeDlyHMSM
    esp8266.o(.text) refers to usart3.o(.bss) for esp8266_buf
    esp8266.o(.text) refers to usart3.o(.data) for esp8266_cnt
    esp8266.o(.text) refers to esp8266.o(.data) for .data
    gps.o(.text) refers to usart2.o(.text) for usart2_init
    gps.o(.text) refers to _scanf_int.o(.text) for _scanf_int
    gps.o(.text) refers to strcpy.o(.text) for strcpy
    gps.o(.text) refers to strtok.o(.text) for strtok
    gps.o(.text) refers to utils.o(.text) for check_sum
    gps.o(.text) refers to strstr.o(.text) for strstr
    gps.o(.text) refers to __0sscanf.o(.text) for __0sscanf
    gps.o(.text) refers to rt_memcpy_w.o(.text) for __aeabi_memcpy4
    gps.o(.text) refers to usart2.o(.bss) for gps_buffer
    hmc5883l.o(.text) refers to iic.o(.text) for iic_read_data
    hmc5883l.o(.text) refers to fflt_clz.o(x$fpl$fflt) for __aeabi_i2f
    hmc5883l.o(.text) refers to fdiv.o(x$fpl$fdiv) for __aeabi_fdiv
    hmc5883l.o(.text) refers to f2d.o(x$fpl$f2d) for __aeabi_f2d
    hmc5883l.o(.text) refers to daddsub_clz.o(x$fpl$dsub) for __aeabi_dsub
    hmc5883l.o(.text) refers to dmul.o(x$fpl$dmul) for __aeabi_dmul
    hmc5883l.o(.text) refers to d2f.o(x$fpl$d2f) for __aeabi_d2f
    hmc5883l.o(.text) refers to atan.o(i.atan) for atan
    hmc5883l.o(.text) refers to daddsub_clz.o(x$fpl$dadd) for __aeabi_dadd
    hmc5883l.o(.text) refers to dfix.o(x$fpl$dfix) for __aeabi_d2iz
    delay.o(.text) refers to os_core.o(.text) for OSSchedLock
    delay.o(.text) refers to os_time.o(.text) for OSTimeDly
    delay.o(.text) refers to misc.o(.text) for SysTick_CLKSourceConfig
    delay.o(.text) refers to os_var.o(.data) for OSRunning
    delay.o(.text) refers to system_stm32f10x.o(.data) for SystemCoreClock
    delay.o(.text) refers to delay.o(.data) for .data
    delay.o(.text) refers to os_cfg_app.o(.constdata) for OSCfg_TickRate_Hz
    delay.o(.text) refers to os_var.o(.data) for OSIntNestingCtr
    usart1.o(.text) refers (Special) to use_no_semi_2.o(.text) for __use_no_semihosting
    usart1.o(.text) refers to stm32f10x_rcc.o(.text) for RCC_APB2PeriphClockCmd
    usart1.o(.text) refers to stm32f10x_gpio.o(.text) for GPIO_Init
    usart1.o(.text) refers to stm32f10x_usart.o(.text) for USART_Init
    usart1.o(.text) refers to misc.o(.text) for NVIC_PriorityGroupConfig
    usart1.o(.text) refers to vsprintf.o(.text) for vsprintf
    usart1.o(.text) refers to os_core.o(.text) for OSIntEnter
    usart1.o(.text) refers to rt_memcpy_v6.o(.text) for __aeabi_memcpy
    usart1.o(.text) refers to usart1.o(.data) for .data
    usart1.o(.text) refers to usart1.o(.bss) for .bss
    usart1.o(.bss) refers (Special) to use_no_semi_2.o(.text) for __use_no_semihosting
    usart1.o(.data) refers (Special) to use_no_semi_2.o(.text) for __use_no_semihosting
    usart1.o(.data) refers (Special) to use_no_semi_2.o(.text) for __use_no_semihosting
    usart2.o(.text) refers to stm32f10x_rcc.o(.text) for RCC_APB1PeriphClockCmd
    usart2.o(.text) refers to stm32f10x_gpio.o(.text) for GPIO_Init
    usart2.o(.text) refers to stm32f10x_usart.o(.text) for USART_Init
    usart2.o(.text) refers to misc.o(.text) for NVIC_PriorityGroupConfig
    usart2.o(.text) refers to os_core.o(.text) for OSIntEnter
    usart2.o(.text) refers to rt_memcpy_v6.o(.text) for __aeabi_memcpy
    usart2.o(.text) refers to usart2.o(.data) for .data
    usart2.o(.text) refers to usart2.o(.bss) for .bss
    usart3.o(.text) refers to stm32f10x_rcc.o(.text) for RCC_APB1PeriphClockCmd
    usart3.o(.text) refers to stm32f10x_gpio.o(.text) for GPIO_Init
    usart3.o(.text) refers to stm32f10x_usart.o(.text) for USART_Init
    usart3.o(.text) refers to misc.o(.text) for NVIC_PriorityGroupConfig
    usart3.o(.text) refers to vsprintf.o(.text) for vsprintf
    usart3.o(.text) refers to os_core.o(.text) for OSIntEnter
    usart3.o(.text) refers to strcat.o(.text) for strcat
    usart3.o(.text) refers to strstr.o(.text) for strstr
    usart3.o(.text) refers to strcpy.o(.text) for strcpy
    usart3.o(.text) refers to usart3.o(.data) for .data
    usart3.o(.text) refers to usart3.o(.bss) for .bss
    utils.o(.text) refers to _printf_pad.o(.text) for _printf_pre_padding
    utils.o(.text) refers to _printf_percent.o(.ARM.Collect$$_printf_percent$$00000000) for _printf_percent
    utils.o(.text) refers to _printf_x.o(.ARM.Collect$$_printf_percent$$0000000C) for _printf_x
    utils.o(.text) refers to _printf_hex_int_ll_ptr.o(.text) for _printf_longlong_hex
    utils.o(.text) refers to _scanf_int.o(.text) for _scanf_int
    utils.o(.text) refers to __2sprintf.o(.text) for __2sprintf
    utils.o(.text) refers to strcmpv7m.o(.text) for strcmp
    utils.o(.text) refers to dmul.o(x$fpl$dmul) for __aeabi_dmul
    utils.o(.text) refers to ddiv.o(x$fpl$ddiv) for __aeabi_ddiv
    utils.o(.text) refers to daddsub_clz.o(x$fpl$dsub) for __aeabi_dsub
    utils.o(.text) refers to scalbn.o(x$fpl$scalbn) for __ARM_scalbn
    utils.o(.text) refers to sin.o(i.sin) for sin
    utils.o(.text) refers to pow.o(i.pow) for pow
    utils.o(.text) refers to cos.o(i.cos) for cos
    utils.o(.text) refers to daddsub_clz.o(x$fpl$dadd) for __aeabi_dadd
    utils.o(.text) refers to sqrt.o(i.sqrt) for sqrt
    utils.o(.text) refers to asin.o(i.asin) for asin
    utils.o(.text) refers to drleqf.o(x$fpl$drleqf) for __aeabi_cdrcmple
    utils.o(.text) refers to atan2.o(i.atan2) for atan2
    utils.o(.text) refers to strcpy.o(.text) for strcpy
    utils.o(.text) refers to strtok.o(.text) for strtok
    utils.o(.text) refers to __0sscanf.o(.text) for __0sscanf
    utils.o(.text) refers to rt_memcpy_w.o(.text) for __aeabi_memcpy4
    utils.o(.text) refers to dflt_clz.o(x$fpl$dfltu) for __aeabi_ui2d
    utils.o(.text) refers to d2f.o(x$fpl$d2f) for __aeabi_d2f
    utils.o(.text) refers to f2d.o(x$fpl$f2d) for __aeabi_f2d
    utils.o(.text) refers to strcat.o(.text) for strcat
    iwdg.o(.text) refers to stm32f10x_iwdg.o(.text) for IWDG_WriteAccessCmd
    iwdg.o(.text) refers to dflt_clz.o(x$fpl$dfltu) for __aeabi_ui2d
    iwdg.o(.text) refers to dmul.o(x$fpl$dmul) for __aeabi_dmul
    iwdg.o(.text) refers to dfixu.o(x$fpl$dfixu) for __aeabi_d2uiz
    startup_stm32f10x_md.o(STACK) refers (Special) to heapauxi.o(.text) for __use_two_region_memory
    startup_stm32f10x_md.o(HEAP) refers (Special) to heapauxi.o(.text) for __use_two_region_memory
    startup_stm32f10x_md.o(RESET) refers (Special) to heapauxi.o(.text) for __use_two_region_memory
    startup_stm32f10x_md.o(RESET) refers to startup_stm32f10x_md.o(STACK) for __initial_sp
    startup_stm32f10x_md.o(RESET) refers to startup_stm32f10x_md.o(.text) for Reset_Handler
    startup_stm32f10x_md.o(RESET) refers to stm32f10x_it.o(.text) for NMI_Handler
    startup_stm32f10x_md.o(RESET) refers to os_cpu_a.o(CODE) for PendSV_Handler
    startup_stm32f10x_md.o(RESET) refers to delay.o(.text) for SysTick_Handler
    startup_stm32f10x_md.o(RESET) refers to usart1.o(.text) for USART1_IRQHandler
    startup_stm32f10x_md.o(RESET) refers to usart2.o(.text) for USART2_IRQHandler
    startup_stm32f10x_md.o(RESET) refers to usart3.o(.text) for USART3_IRQHandler
    startup_stm32f10x_md.o(.text) refers (Special) to heapauxi.o(.text) for __use_two_region_memory
    startup_stm32f10x_md.o(.text) refers to system_stm32f10x.o(.text) for SystemInit
    startup_stm32f10x_md.o(.text) refers to __main.o(!!!main) for __main
    startup_stm32f10x_md.o(.text) refers to startup_stm32f10x_md.o(HEAP) for Heap_Mem
    startup_stm32f10x_md.o(.text) refers to startup_stm32f10x_md.o(STACK) for Stack_Mem
    stm32f10x_gpio.o(.text) refers to stm32f10x_rcc.o(.text) for RCC_APB2PeriphResetCmd
    stm32f10x_usart.o(.text) refers to stm32f10x_rcc.o(.text) for RCC_APB2PeriphResetCmd
    stm32f10x_rcc.o(.text) refers to stm32f10x_rcc.o(.data) for .data
    stm32f10x_tim.o(.text) refers to stm32f10x_rcc.o(.text) for RCC_APB1PeriphResetCmd
    bsp.o(.text) refers to stm32f10x_rcc.o(.text) for RCC_GetClocksFreq
    bsp.o(.text) refers to cpu_core.o(.text) for CPU_TS_TmrFreqSet
    bsp.o(.text) refers to lludivv7m.o(.text) for __aeabi_uldivmod
    cpu_core.o(.text) refers to cpu_a.o(.text) for CPU_SR_Save
    cpu_core.o(.text) refers to lib_mem.o(.text) for Mem_Clr
    cpu_core.o(.text) refers to bsp.o(.text) for CPU_TS_TmrInit
    cpu_core.o(.text) refers to lib_str.o(.text) for Str_Copy_N
    cpu_core.o(.text) refers to cpu_core.o(.bss) for .bss
    cpu_core.o(.text) refers to cpu_core.o(.data) for .data
    cpu_core.o(.text) refers to cpu_core.o(.constdata) for .constdata
    cpu_c.o(.text) refers to cpu_a.o(.text) for CPU_SR_Save
    lib_math.o(.text) refers to cpu_a.o(.text) for CPU_SR_Save
    lib_math.o(.text) refers to lib_math.o(.data) for .data
    lib_mem.o(.text) refers to lib_mem_a.o(.text) for Mem_Copy
    lib_mem.o(.text) refers to cpu_a.o(.text) for CPU_SR_Save
    lib_mem.o(.text) refers to lib_mem.o(.bss) for .bss
    lib_mem.o(.text) refers to lib_mem.o(.data) for .data
    lib_str.o(.text) refers to lib_ascii.o(.text) for ASCII_ToLower
    lib_str.o(.text) refers to lib_str.o(.constdata) for .constdata
    os_cfg_app.o(.constdata) refers to os_cfg_app.o(.bss) for OSCfg_IdleTaskStk
    os_cfg_app.o(.constdata) refers to os_cfg_app.o(.bss) for OSCfg_IntQ
    os_cfg_app.o(.constdata) refers to os_cfg_app.o(.bss) for OSCfg_IntQTaskStk
    os_cfg_app.o(.constdata) refers to os_cfg_app.o(.bss) for OSCfg_ISRStk
    os_cfg_app.o(.constdata) refers to os_cfg_app.o(.bss) for OSCfg_MsgPool
    os_cfg_app.o(.constdata) refers to os_cfg_app.o(.bss) for OSCfg_StatTaskStk
    os_cfg_app.o(.constdata) refers to os_cfg_app.o(.bss) for OSCfg_TickTaskStk
    os_cfg_app.o(.constdata) refers to os_cfg_app.o(.bss) for OSCfg_TmrTaskStk
    os_core.o(.text) refers to cpu_a.o(.text) for CPU_SR_Save
    os_core.o(.text) refers to os_cpu_c.o(.text) for OSIdleTaskHook
    os_core.o(.text) refers to os_task.o(.text) for OSTaskCreate
    os_core.o(.text) refers to os_prio.o(.text) for OS_PrioInit
    os_core.o(.text) refers to os_flag.o(.text) for OS_FlagInit
    os_core.o(.text) refers to os_mem.o(.text) for OS_MemInit
    os_core.o(.text) refers to os_msg.o(.text) for OS_MsgPoolInit
    os_core.o(.text) refers to os_mutex.o(.text) for OS_MutexInit
    os_core.o(.text) refers to os_q.o(.text) for OS_QInit
    os_core.o(.text) refers to os_sem.o(.text) for OS_SemInit
    os_core.o(.text) refers to os_int.o(.text) for OS_IntQTaskInit
    os_core.o(.text) refers to os_tick.o(.text) for OS_TickTaskInit
    os_core.o(.text) refers to os_stat.o(.text) for OS_StatTaskInit
    os_core.o(.text) refers to os_tmr.o(.text) for OS_TmrInit
    os_core.o(.text) refers to os_dbg.o(.text) for OS_Dbg_Init
    os_core.o(.text) refers to os_cfg_app.o(.text) for OSCfg_Init
    os_core.o(.text) refers to os_cpu_a.o(CODE) for OSIntCtxSw
    os_core.o(.text) refers to bsp.o(.text) for CPU_TS_TmrRd
    os_core.o(.text) refers to os_var.o(.data) for OSIdleTaskCtr
    os_core.o(.text) refers to os_var.o(.data) for OSStatTaskCtr
    os_core.o(.text) refers to os_cfg_app.o(.constdata) for OSCfg_IdleTaskStkSize
    os_core.o(.text) refers to os_var.o(.bss) for OSIdleTaskTCB
    os_core.o(.text) refers to os_var.o(.bss) for OSRdyList
    os_core.o(.text) refers to os_var.o(.data) for OSIntNestingCtr
    os_core.o(.text) refers to os_var.o(.data) for OSRunning
    os_core.o(.text) refers to os_var.o(.data) for OSSchedLockNestingCtr
    os_core.o(.text) refers to os_var.o(.data) for OSTCBCurPtr
    os_core.o(.text) refers to os_var.o(.data) for OSTCBHighRdyPtr
    os_core.o(.text) refers to os_var.o(.data) for OSPrioCur
    os_core.o(.text) refers to os_var.o(.data) for OSPrioHighRdy
    os_core.o(.text) refers to os_var.o(.data) for OSPrioSaved
    os_core.o(.text) refers to os_var.o(.data) for OSSchedLockTimeBegin
    os_core.o(.text) refers to os_var.o(.data) for OSSchedLockTimeMax
    os_core.o(.text) refers to os_var.o(.data) for OSSchedLockTimeMaxCur
    os_core.o(.text) refers to os_var.o(.data) for OSSchedRoundRobinEn
    os_core.o(.text) refers to os_var.o(.data) for OSSchedRoundRobinDfltTimeQuanta
    os_core.o(.text) refers to os_var.o(.data) for OS_AppTaskCreateHookPtr
    os_core.o(.text) refers to os_var.o(.data) for OS_AppTaskDelHookPtr
    os_core.o(.text) refers to os_var.o(.data) for OS_AppTaskReturnHookPtr
    os_core.o(.text) refers to os_var.o(.data) for OS_AppIdleTaskHookPtr
    os_core.o(.text) refers to os_var.o(.data) for OS_AppStatTaskHookPtr
    os_core.o(.text) refers to os_var.o(.data) for OS_AppTaskSwHookPtr
    os_core.o(.text) refers to os_var.o(.data) for OS_AppTimeTickHookPtr
    os_core.o(.text) refers to os_var.o(.data) for OSTaskRegNextAvailID
    os_core.o(.text) refers to os_var.o(.data) for OSTaskCtxSwCtr
    os_core.o(.text) refers to os_var.o(.bss) for OSIntQTaskTCB
    os_flag.o(.text) refers to cpu_a.o(.text) for CPU_SR_Save
    os_flag.o(.text) refers to os_core.o(.text) for OS_PendListInit
    os_flag.o(.text) refers to bsp.o(.text) for CPU_TS_TmrRd
    os_flag.o(.text) refers to os_var.o(.data) for OSFlagDbgListPtr
    os_flag.o(.text) refers to os_var.o(.data) for OSIntNestingCtr
    os_flag.o(.text) refers to os_var.o(.data) for OSSchedLockNestingCtr
    os_flag.o(.text) refers to os_var.o(.data) for OSFlagQty
    os_flag.o(.text) refers to os_var.o(.data) for OSIntQNbrEntries
    os_flag.o(.text) refers to os_var.o(.data) for OSTCBCurPtr
    os_flag.o(.text) refers to os_int.o(.text) for OS_IntQPost
    os_int.o(.text) refers to cpu_a.o(.text) for CPU_SR_Save
    os_int.o(.text) refers to os_prio.o(.text) for OS_PrioInsert
    os_int.o(.text) refers to os_task.o(.text) for OS_TaskQPost
    os_int.o(.text) refers to os_q.o(.text) for OS_QPost
    os_int.o(.text) refers to os_flag.o(.text) for OS_FlagPost
    os_int.o(.text) refers to os_sem.o(.text) for OS_SemPost
    os_int.o(.text) refers to os_core.o(.text) for OS_SchedRoundRobin
    os_int.o(.text) refers to bsp.o(.text) for CPU_TS_TmrRd
    os_int.o(.text) refers to os_var.o(.data) for OSIntQNbrEntries
    os_int.o(.text) refers to os_cfg_app.o(.constdata) for OSCfg_IntQSize
    os_int.o(.text) refers to os_var.o(.data) for OSIntQNbrEntriesMax
    os_int.o(.text) refers to os_var.o(.data) for OSIntQInPtr
    os_int.o(.text) refers to os_var.o(.bss) for OSRdyList
    os_int.o(.text) refers to os_var.o(.bss) for OSIntQTaskTCB
    os_int.o(.text) refers to os_var.o(.data) for OSPrioCur
    os_int.o(.text) refers to os_var.o(.data) for OSPrioSaved
    os_int.o(.text) refers to os_var.o(.data) for OSIntQOvfCtr
    os_int.o(.text) refers to os_var.o(.data) for OSIntQOutPtr
    os_int.o(.text) refers to os_var.o(.bss) for OSTickTaskTCB
    os_int.o(.text) refers to os_var.o(.data) for OSTmrUpdateCtr
    os_int.o(.text) refers to os_var.o(.data) for OSTmrUpdateCnt
    os_int.o(.text) refers to os_var.o(.bss) for OSTmrTaskTCB
    os_int.o(.text) refers to os_var.o(.data) for OSIntQTaskTimeMax
    os_mem.o(.text) refers to cpu_a.o(.text) for CPU_SR_Save
    os_mem.o(.text) refers to os_var.o(.data) for OSMemDbgListPtr
    os_mem.o(.text) refers to os_var.o(.data) for OSIntNestingCtr
    os_mem.o(.text) refers to os_var.o(.data) for OSSchedLockNestingCtr
    os_mem.o(.text) refers to os_var.o(.data) for OSMemQty
    os_msg.o(.text) refers to os_cfg_app.o(.constdata) for OSCfg_MsgPoolBasePtr
    os_msg.o(.text) refers to os_var.o(.bss) for OSMsgPool
    os_mutex.o(.text) refers to cpu_a.o(.text) for CPU_SR_Save
    os_mutex.o(.text) refers to os_core.o(.text) for OS_PendListInit
    os_mutex.o(.text) refers to os_prio.o(.text) for OS_PrioInsert
    os_mutex.o(.text) refers to bsp.o(.text) for CPU_TS_TmrRd
    os_mutex.o(.text) refers to os_var.o(.data) for OSMutexDbgListPtr
    os_mutex.o(.text) refers to os_var.o(.data) for OSIntNestingCtr
    os_mutex.o(.text) refers to os_var.o(.data) for OSSchedLockNestingCtr
    os_mutex.o(.text) refers to os_var.o(.data) for OSMutexQty
    os_mutex.o(.text) refers to os_var.o(.data) for OSIntQNbrEntries
    os_mutex.o(.text) refers to os_var.o(.data) for OSTCBCurPtr
    os_mutex.o(.text) refers to os_var.o(.data) for OSPrioCur
    os_prio.o(.text) refers to cpu_a.o(.text) for CPU_CntLeadZeros
    os_prio.o(.text) refers to os_prio.o(.data) for .data
    os_q.o(.text) refers to cpu_a.o(.text) for CPU_SR_Save
    os_q.o(.text) refers to os_msg.o(.text) for OS_MsgQInit
    os_q.o(.text) refers to os_core.o(.text) for OS_PendListInit
    os_q.o(.text) refers to bsp.o(.text) for CPU_TS_TmrRd
    os_q.o(.text) refers to os_var.o(.data) for OSQDbgListPtr
    os_q.o(.text) refers to os_var.o(.data) for OSIntNestingCtr
    os_q.o(.text) refers to os_var.o(.data) for OSSchedLockNestingCtr
    os_q.o(.text) refers to os_var.o(.data) for OSQQty
    os_q.o(.text) refers to os_var.o(.data) for OSIntQNbrEntries
    os_q.o(.text) refers to os_var.o(.data) for OSTCBCurPtr
    os_q.o(.text) refers to os_int.o(.text) for OS_IntQPost
    os_sem.o(.text) refers to cpu_a.o(.text) for CPU_SR_Save
    os_sem.o(.text) refers to os_core.o(.text) for OS_PendListInit
    os_sem.o(.text) refers to bsp.o(.text) for CPU_TS_TmrRd
    os_sem.o(.text) refers to os_var.o(.data) for OSSemDbgListPtr
    os_sem.o(.text) refers to os_var.o(.data) for OSIntNestingCtr
    os_sem.o(.text) refers to os_var.o(.data) for OSSchedLockNestingCtr
    os_sem.o(.text) refers to os_var.o(.data) for OSSemQty
    os_sem.o(.text) refers to os_var.o(.data) for OSTCBCurPtr
    os_sem.o(.text) refers to os_int.o(.text) for OS_IntQPost
    os_stat.o(.text) refers to cpu_a.o(.text) for CPU_SR_Save
    os_stat.o(.text) refers to bsp.o(.text) for CPU_TS_TmrRd
    os_stat.o(.text) refers to os_tick.o(.text) for OS_TickListResetPeak
    os_stat.o(.text) refers to os_tmr.o(.text) for OS_TmrResetPeak
    os_stat.o(.text) refers to os_task.o(.text) for OSTaskSuspend
    os_stat.o(.text) refers to os_time.o(.text) for OSTimeDly
    os_stat.o(.text) refers to os_cpu_c.o(.text) for OSStatTaskHook
    os_stat.o(.text) refers to os_core.o(.text) for OS_Sched0
    os_stat.o(.text) refers to os_var.o(.data) for OSIntQTaskTimeMax
    os_stat.o(.text) refers to os_var.o(.data) for OSIntQNbrEntriesMax
    os_stat.o(.text) refers to os_var.o(.data) for OSStatTaskCPUUsageMax
    os_stat.o(.text) refers to os_var.o(.data) for OSStatTaskTimeMax
    os_stat.o(.text) refers to os_var.o(.data) for OSTickTaskTimeMax
    os_stat.o(.text) refers to os_var.o(.data) for OSTmrTaskTimeMax
    os_stat.o(.text) refers to os_var.o(.data) for OSSchedLockTimeMax
    os_stat.o(.text) refers to os_var.o(.bss) for OSMsgPool
    os_stat.o(.text) refers to os_var.o(.data) for OSTaskDbgListPtr
    os_stat.o(.text) refers to os_var.o(.data) for OSQDbgListPtr
    os_stat.o(.text) refers to os_var.o(.bss) for OSTmrTaskTCB
    os_stat.o(.text) refers to os_var.o(.data) for OSStatTaskCtr
    os_stat.o(.text) refers to os_cfg_app.o(.constdata) for OSCfg_TickRate_Hz
    os_stat.o(.text) refers to os_var.o(.data) for OSStatTaskCtrMax
    os_stat.o(.text) refers to os_var.o(.data) for OSStatTaskRdy
    os_stat.o(.text) refers to os_var.o(.data) for OSStatTaskCtrRun
    os_stat.o(.text) refers to os_var.o(.data) for OSStatTaskCPUUsage
    os_stat.o(.text) refers to os_var.o(.data) for OSSchedLockNestingCtr
    os_stat.o(.text) refers to os_var.o(.data) for OSIntQNbrEntries
    os_stat.o(.text) refers to os_var.o(.data) for OSStatResetFlag
    os_stat.o(.text) refers to os_var.o(.bss) for OSStatTaskTCB
    os_task.o(.text) refers to cpu_a.o(.text) for CPU_SR_Save
    os_task.o(.text) refers to os_core.o(.text) for OS_RdyListRemove
    os_task.o(.text) refers to os_prio.o(.text) for OS_PrioInsert
    os_task.o(.text) refers to os_msg.o(.text) for OS_MsgQInit
    os_task.o(.text) refers to bsp.o(.text) for CPU_TS_TmrRd
    os_task.o(.text) refers to os_cpu_c.o(.text) for OSTaskStkInit
    os_task.o(.text) refers to os_var.o(.data) for OSIntNestingCtr
    os_task.o(.text) refers to os_var.o(.data) for OSSchedLockNestingCtr
    os_task.o(.text) refers to os_var.o(.data) for OSTCBCurPtr
    os_task.o(.text) refers to os_var.o(.data) for OSIntQNbrEntries
    os_task.o(.text) refers to os_var.o(.data) for OSTaskDbgListPtr
    os_task.o(.text) refers to os_cfg_app.o(.constdata) for OSCfg_StkSizeMin
    os_task.o(.text) refers to os_var.o(.bss) for OSIntQTaskTCB
    os_task.o(.text) refers to os_var.o(.bss) for OSIdleTaskTCB
    os_task.o(.text) refers to os_var.o(.data) for OSTaskQty
    os_task.o(.text) refers to os_var.o(.data) for OSRunning
    os_task.o(.text) refers to os_var.o(.data) for OSSchedRoundRobinDfltTimeQuanta
    os_task.o(.text) refers to os_tick.o(.text) for OS_TickListRemove
    os_task.o(.text) refers to os_int.o(.text) for OS_IntQPost
    os_task.o(.text) refers to os_var.o(.data) for OSTaskRegNextAvailID
    os_task.o(.text) refers to os_var.o(.data) for OSTaskCtxSwCtr
    os_tick.o(.text) refers to cpu_a.o(.text) for CPU_SR_Save
    os_tick.o(.text) refers to bsp.o(.text) for CPU_TS_TmrRd
    os_tick.o(.text) refers to os_core.o(.text) for OS_TaskRdy
    os_tick.o(.text) refers to os_task.o(.text) for OSTaskSemPend
    os_tick.o(.text) refers to os_var.o(.data) for OSSchedLockNestingCtr
    os_tick.o(.text) refers to os_var.o(.data) for OSTickCtr
    os_tick.o(.text) refers to os_cfg_app.o(.constdata) for OSCfg_TickWheelSize
    os_tick.o(.text) refers to os_cfg_app.o(.bss) for OSCfg_TickWheel
    os_tick.o(.text) refers to os_var.o(.data) for OSTickTaskTimeMax
    os_tick.o(.text) refers to os_var.o(.data) for OSIntQNbrEntries
    os_tick.o(.text) refers to os_var.o(.data) for OSRunning
    os_tick.o(.text) refers to os_var.o(.bss) for OSTickTaskTCB
    os_time.o(.text) refers to cpu_a.o(.text) for CPU_SR_Save
    os_time.o(.text) refers to os_tick.o(.text) for OS_TickListInsert
    os_time.o(.text) refers to os_core.o(.text) for OS_RdyListRemove
    os_time.o(.text) refers to os_cpu_c.o(.text) for OSTimeTickHook
    os_time.o(.text) refers to bsp.o(.text) for CPU_TS_TmrRd
    os_time.o(.text) refers to os_int.o(.text) for OS_IntQPost
    os_time.o(.text) refers to os_var.o(.data) for OSIntNestingCtr
    os_time.o(.text) refers to os_var.o(.data) for OSSchedLockNestingCtr
    os_time.o(.text) refers to os_var.o(.data) for OSTCBCurPtr
    os_time.o(.text) refers to os_cfg_app.o(.constdata) for OSCfg_TickRate_Hz
    os_time.o(.text) refers to os_var.o(.data) for OSTickCtr
    os_time.o(.text) refers to os_var.o(.data) for OSPrioCur
    os_time.o(.text) refers to os_var.o(.bss) for OSRdyList
    os_tmr.o(.text) refers to cpu_a.o(.text) for CPU_SR_Save
    os_tmr.o(.text) refers to os_core.o(.text) for OSSchedLock
    os_tmr.o(.text) refers to os_var.o(.data) for OSTmrDbgListPtr
    os_tmr.o(.text) refers to os_var.o(.data) for OSIntNestingCtr
    os_tmr.o(.text) refers to os_var.o(.data) for OSSchedLockNestingCtr
    os_tmr.o(.text) refers to os_var.o(.data) for OSTmrQty
    os_tmr.o(.text) refers to os_cfg_app.o(.constdata) for OSCfg_TmrWheelSize
    os_tmr.o(.text) refers to os_cfg_app.o(.bss) for OSCfg_TmrWheel
    os_tmr.o(.text) refers to os_var.o(.data) for OSTmrTickCtr
    os_tmr.o(.text) refers to os_task.o(.text) for OSTaskSemPend
    os_tmr.o(.text) refers to bsp.o(.text) for CPU_TS_TmrRd
    os_tmr.o(.text) refers to os_var.o(.data) for OSTmrTaskTimeMax
    os_tmr.o(.text) refers to os_var.o(.data) for OSTmrUpdateCnt
    os_tmr.o(.text) refers to os_var.o(.data) for OSTmrUpdateCtr
    os_tmr.o(.text) refers to os_var.o(.bss) for OSTmrTaskTCB
    os_cpu_a.o(CODE) refers to os_cpu_c.o(.data) for OS_CPU_ExceptStkBase
    os_cpu_a.o(CODE) refers to os_var.o(.data) for OSTCBCurPtr
    os_cpu_a.o(CODE) refers to os_cpu_c.o(.text) for OSTaskSwHook
    os_cpu_a.o(CODE) refers to os_var.o(.data) for OSPrioCur
    os_cpu_a.o(CODE) refers to os_var.o(.data) for OSPrioHighRdy
    os_cpu_a.o(CODE) refers to os_var.o(.data) for OSTCBHighRdyPtr
    os_cpu_c.o(.text) refers to bsp.o(.text) for CPU_TS_TmrRd
    os_cpu_c.o(.text) refers to cpu_a.o(.text) for CPU_SR_Save
    os_cpu_c.o(.text) refers to os_time.o(.text) for OSTimeTick
    os_cpu_c.o(.text) refers to os_core.o(.text) for OSIntExit
    os_cpu_c.o(.text) refers to os_var.o(.data) for OS_AppIdleTaskHookPtr
    os_cpu_c.o(.text) refers to os_cfg_app.o(.constdata) for OSCfg_ISRStkBasePtr
    os_cpu_c.o(.text) refers to os_cpu_c.o(.data) for .data
    os_cpu_c.o(.text) refers to os_var.o(.data) for OS_AppStatTaskHookPtr
    os_cpu_c.o(.text) refers to os_var.o(.data) for OS_AppTaskCreateHookPtr
    os_cpu_c.o(.text) refers to os_var.o(.data) for OS_AppTaskDelHookPtr
    os_cpu_c.o(.text) refers to os_var.o(.data) for OS_AppTaskReturnHookPtr
    os_cpu_c.o(.text) refers to os_task.o(.text) for OS_TaskReturn
    os_cpu_c.o(.text) refers to os_var.o(.data) for OS_AppTaskSwHookPtr
    os_cpu_c.o(.text) refers to os_var.o(.data) for OSTCBCurPtr
    os_cpu_c.o(.text) refers to os_var.o(.data) for OSTCBHighRdyPtr
    os_cpu_c.o(.text) refers to os_var.o(.data) for OSSchedLockTimeMaxCur
    os_cpu_c.o(.text) refers to os_var.o(.data) for OS_AppTimeTickHookPtr
    os_cpu_c.o(.text) refers to os_var.o(.data) for OSIntNestingCtr
    os_app_hooks.o(.text) refers to cpu_a.o(.text) for CPU_SR_Save
    os_app_hooks.o(.text) refers to os_var.o(.data) for OS_AppTaskCreateHookPtr
    os_app_hooks.o(.text) refers to os_var.o(.data) for OS_AppTaskDelHookPtr
    os_app_hooks.o(.text) refers to os_var.o(.data) for OS_AppTaskReturnHookPtr
    os_app_hooks.o(.text) refers to os_var.o(.data) for OS_AppIdleTaskHookPtr
    os_app_hooks.o(.text) refers to os_var.o(.data) for OS_AppStatTaskHookPtr
    os_app_hooks.o(.text) refers to os_var.o(.data) for OS_AppTaskSwHookPtr
    os_app_hooks.o(.text) refers to os_var.o(.data) for OS_AppTimeTickHookPtr
    use_no_semi_2.o(.text) refers (Special) to use_no_semi.o(.text) for __use_no_semihosting_swi
    vsprintf.o(.text) refers (Special) to _printf_a.o(.ARM.Collect$$_printf_percent$$00000006) for _printf_a
    vsprintf.o(.text) refers (Special) to _printf_c.o(.ARM.Collect$$_printf_percent$$00000013) for _printf_c
    vsprintf.o(.text) refers (Special) to _printf_charcount.o(.text) for _printf_charcount
    vsprintf.o(.text) refers (Special) to _printf_d.o(.ARM.Collect$$_printf_percent$$00000009) for _printf_d
    vsprintf.o(.text) refers (Special) to _printf_e.o(.ARM.Collect$$_printf_percent$$00000004) for _printf_e
    vsprintf.o(.text) refers (Special) to _printf_f.o(.ARM.Collect$$_printf_percent$$00000003) for _printf_f
    vsprintf.o(.text) refers (Special) to printf1.o(x$fpl$printf1) for _printf_fp_dec
    vsprintf.o(.text) refers (Special) to printf2.o(x$fpl$printf2) for _printf_fp_hex
    vsprintf.o(.text) refers (Special) to _printf_g.o(.ARM.Collect$$_printf_percent$$00000005) for _printf_g
    vsprintf.o(.text) refers (Special) to _printf_i.o(.ARM.Collect$$_printf_percent$$00000008) for _printf_i
    vsprintf.o(.text) refers (Special) to _printf_dec.o(.text) for _printf_int_dec
    vsprintf.o(.text) refers (Special) to _printf_l.o(.ARM.Collect$$_printf_percent$$00000012) for _printf_l
    vsprintf.o(.text) refers (Special) to _printf_lc.o(.ARM.Collect$$_printf_percent$$00000015) for _printf_lc
    vsprintf.o(.text) refers (Special) to _printf_ll.o(.ARM.Collect$$_printf_percent$$00000007) for _printf_ll
    vsprintf.o(.text) refers (Special) to _printf_lld.o(.ARM.Collect$$_printf_percent$$0000000E) for _printf_lld
    vsprintf.o(.text) refers (Special) to _printf_lli.o(.ARM.Collect$$_printf_percent$$0000000D) for _printf_lli
    vsprintf.o(.text) refers (Special) to _printf_llo.o(.ARM.Collect$$_printf_percent$$00000010) for _printf_llo
    vsprintf.o(.text) refers (Special) to _printf_llu.o(.ARM.Collect$$_printf_percent$$0000000F) for _printf_llu
    vsprintf.o(.text) refers (Special) to _printf_llx.o(.ARM.Collect$$_printf_percent$$00000011) for _printf_llx
    vsprintf.o(.text) refers (Special) to _printf_longlong_dec.o(.text) for _printf_longlong_dec
    vsprintf.o(.text) refers (Special) to _printf_hex_int_ll_ptr.o(.text) for _printf_longlong_hex
    vsprintf.o(.text) refers (Special) to _printf_oct_int_ll.o(.text) for _printf_longlong_oct
    vsprintf.o(.text) refers (Special) to _printf_ls.o(.ARM.Collect$$_printf_percent$$00000016) for _printf_ls
    vsprintf.o(.text) refers (Special) to _printf_n.o(.ARM.Collect$$_printf_percent$$00000001) for _printf_n
    vsprintf.o(.text) refers (Special) to _printf_o.o(.ARM.Collect$$_printf_percent$$0000000B) for _printf_o
    vsprintf.o(.text) refers (Special) to _printf_p.o(.ARM.Collect$$_printf_percent$$00000002) for _printf_p
    vsprintf.o(.text) refers (Special) to _printf_percent.o(.ARM.Collect$$_printf_percent$$00000000) for _printf_percent
    vsprintf.o(.text) refers (Special) to _printf_pad.o(.text) for _printf_post_padding
    vsprintf.o(.text) refers (Special) to _printf_s.o(.ARM.Collect$$_printf_percent$$00000014) for _printf_s
    vsprintf.o(.text) refers (Special) to _printf_str.o(.text) for _printf_str
    vsprintf.o(.text) refers (Special) to _printf_truncate.o(.text) for _printf_truncate_signed
    vsprintf.o(.text) refers (Special) to _printf_u.o(.ARM.Collect$$_printf_percent$$0000000A) for _printf_u
    vsprintf.o(.text) refers (Special) to _printf_wctomb.o(.text) for _printf_wctomb
    vsprintf.o(.text) refers (Special) to _printf_x.o(.ARM.Collect$$_printf_percent$$0000000C) for _printf_x
    vsprintf.o(.text) refers to _printf_char_common.o(.text) for _printf_char_common
    vsprintf.o(.text) refers to _sputc.o(.text) for _sputc
    __2printf.o(.text) refers to _printf_char_file.o(.text) for _printf_char_file
    __2printf.o(.text) refers to usart1.o(.data) for __stdout
    __2sprintf.o(.text) refers to _printf_char_common.o(.text) for _printf_char_common
    __2sprintf.o(.text) refers to _sputc.o(.text) for _sputc
    noretval__2printf.o(.text) refers to _printf_char_file.o(.text) for _printf_char_file
    noretval__2printf.o(.text) refers to usart1.o(.data) for __stdout
    noretval__2sprintf.o(.text) refers to _printf_char_common.o(.text) for _printf_char_common
    noretval__2sprintf.o(.text) refers to _sputc.o(.text) for _sputc
    __printf.o(.text) refers to _printf_percent.o(.ARM.Collect$$_printf_percent$$00000000) for _printf_percent
    _printf_str.o(.text) refers (Special) to _printf_char.o(.text) for _printf_cs_common
    _printf_str.o(.text) refers (Weak) to _printf_pad.o(.text) for _printf_pre_padding
    _printf_str.o(.text) refers (Weak) to _printf_pad.o(.text) for _printf_post_padding
    _printf_dec.o(.text) refers (Weak) to _printf_truncate.o(.text) for _printf_truncate_signed
    _printf_dec.o(.text) refers (Weak) to _printf_truncate.o(.text) for _printf_truncate_unsigned
    _printf_dec.o(.text) refers to _printf_intcommon.o(.text) for _printf_int_common
    _printf_hex_ll.o(.text) refers to _printf_intcommon.o(.text) for _printf_int_common
    _printf_hex_ll.o(.text) refers to _printf_hex_ll.o(.constdata) for .constdata
    _printf_hex_int.o(.text) refers (Weak) to _printf_truncate.o(.text) for _printf_truncate_unsigned
    _printf_hex_int.o(.text) refers to _printf_intcommon.o(.text) for _printf_int_common
    _printf_hex_int.o(.text) refers to _printf_hex_int.o(.constdata) for .constdata
    _printf_hex_int_ll.o(.text) refers to _printf_intcommon.o(.text) for _printf_int_common
    _printf_hex_int_ll.o(.text) refers (Weak) to _printf_truncate.o(.text) for _printf_truncate_unsigned
    _printf_hex_int_ll.o(.text) refers to _printf_hex_int_ll.o(.constdata) for .constdata
    _printf_hex_ptr.o(.text) refers to _printf_intcommon.o(.text) for _printf_int_common
    _printf_hex_ptr.o(.text) refers to _printf_hex_ptr.o(.constdata) for .constdata
    _printf_hex_int_ptr.o(.text) refers to _printf_intcommon.o(.text) for _printf_int_common
    _printf_hex_int_ptr.o(.text) refers (Weak) to _printf_truncate.o(.text) for _printf_truncate_unsigned
    _printf_hex_int_ptr.o(.text) refers to _printf_hex_int_ptr.o(.constdata) for .constdata
    _printf_hex_ll_ptr.o(.text) refers to _printf_intcommon.o(.text) for _printf_int_common
    _printf_hex_ll_ptr.o(.text) refers to _printf_hex_ll_ptr.o(.constdata) for .constdata
    _printf_hex_int_ll_ptr.o(.text) refers to _printf_intcommon.o(.text) for _printf_int_common
    _printf_hex_int_ll_ptr.o(.text) refers (Weak) to _printf_truncate.o(.text) for _printf_truncate_unsigned
    _printf_hex_int_ll_ptr.o(.text) refers to _printf_hex_int_ll_ptr.o(.constdata) for .constdata
    __printf_flags.o(.text) refers to _printf_percent.o(.ARM.Collect$$_printf_percent$$00000000) for _printf_percent
    __printf_flags.o(.text) refers to __printf_flags.o(.constdata) for .constdata
    __printf_ss.o(.text) refers to _printf_percent.o(.ARM.Collect$$_printf_percent$$00000000) for _printf_percent
    __printf_flags_ss.o(.text) refers to _printf_percent.o(.ARM.Collect$$_printf_percent$$00000000) for _printf_percent
    __printf_flags_ss.o(.text) refers to __printf_flags_ss.o(.constdata) for .constdata
    __printf_wp.o(.text) refers to __printf_wp.o(i._is_digit) for _is_digit
    __printf_wp.o(.text) refers to _printf_percent.o(.ARM.Collect$$_printf_percent$$00000000) for _printf_percent
    __printf_flags_wp.o(.text) refers to __printf_wp.o(i._is_digit) for _is_digit
    __printf_flags_wp.o(.text) refers to _printf_percent.o(.ARM.Collect$$_printf_percent$$00000000) for _printf_percent
    __printf_flags_wp.o(.text) refers to __printf_flags_wp.o(.constdata) for .constdata
    __printf_ss_wp.o(.text) refers to __printf_wp.o(i._is_digit) for _is_digit
    __printf_ss_wp.o(.text) refers to _printf_percent.o(.ARM.Collect$$_printf_percent$$00000000) for _printf_percent
    __printf_flags_ss_wp.o(.text) refers to __printf_wp.o(i._is_digit) for _is_digit
    __printf_flags_ss_wp.o(.text) refers to _printf_percent.o(.ARM.Collect$$_printf_percent$$00000000) for _printf_percent
    __printf_flags_ss_wp.o(.text) refers to __printf_flags_ss_wp.o(.constdata) for .constdata
    _printf_s.o(.ARM.Collect$$_printf_percent$$00000014) refers (Weak) to _printf_char.o(.text) for _printf_string
    _printf_x.o(.ARM.Collect$$_printf_percent$$0000000C) refers (Weak) to _printf_hex_int_ll_ptr.o(.text) for _printf_int_hex
    _printf_d.o(.ARM.Collect$$_printf_percent$$00000009) refers (Weak) to _printf_dec.o(.text) for _printf_int_dec
    _printf_percent.o(.ARM.Collect$$_printf_percent$$00000000) refers (Special) to _printf_percent_end.o(.ARM.Collect$$_printf_percent$$00000017) for _printf_percent_end
    __0sscanf.o(.text) refers to scanf_char.o(.text) for __vfscanf_char
    __0sscanf.o(.text) refers to _sgetc.o(.text) for _sgetc
    _scanf_int.o(.text) refers to _chval.o(.text) for _chval
    strtok.o(.text) refers to strtok_int.o(.text) for __strtok_internal
    strtok.o(.text) refers to strtok.o(.data) for .data
    rt_memcpy_v6.o(.text) refers to rt_memcpy_w.o(.text) for __aeabi_memcpy4
    rt_memclr.o(.text) refers to rt_memclr_w.o(.text) for _memset_w
    __main.o(!!!main) refers to __rtentry.o(.ARM.Collect$$rtentry$$00000000) for __rt_entry
    d2f.o(x$fpl$d2f) refers (Special) to usenofp.o(x$fpl$usenofp) for __I$use$fp
    d2f.o(x$fpl$d2f) refers to fretinf.o(x$fpl$fretinf) for __fpl_fretinf
    d2f.o(x$fpl$d2f) refers to dnaninf.o(x$fpl$dnaninf) for __fpl_dnaninf
    daddsub_clz.o(x$fpl$dadd) refers (Special) to usenofp.o(x$fpl$usenofp) for __I$use$fp
    daddsub_clz.o(x$fpl$dadd) refers to daddsub_clz.o(x$fpl$dsub) for _dsub1
    daddsub_clz.o(x$fpl$dadd) refers to dretinf.o(x$fpl$dretinf) for __fpl_dretinf
    daddsub_clz.o(x$fpl$dadd) refers to dnaninf.o(x$fpl$dnaninf) for __fpl_dnaninf
    daddsub_clz.o(x$fpl$drsb) refers (Special) to usenofp.o(x$fpl$usenofp) for __I$use$fp
    daddsub_clz.o(x$fpl$drsb) refers to daddsub_clz.o(x$fpl$dadd) for _dadd1
    daddsub_clz.o(x$fpl$drsb) refers to daddsub_clz.o(x$fpl$dsub) for _dsub1
    daddsub_clz.o(x$fpl$dsub) refers (Special) to usenofp.o(x$fpl$usenofp) for __I$use$fp
    daddsub_clz.o(x$fpl$dsub) refers to daddsub_clz.o(x$fpl$dadd) for _dadd1
    daddsub_clz.o(x$fpl$dsub) refers to dnaninf.o(x$fpl$dnaninf) for __fpl_dnaninf
    ddiv.o(x$fpl$drdiv) refers (Special) to usenofp.o(x$fpl$usenofp) for __I$use$fp
    ddiv.o(x$fpl$drdiv) refers to ddiv.o(x$fpl$ddiv) for ddiv_entry
    ddiv.o(x$fpl$ddiv) refers (Special) to usenofp.o(x$fpl$usenofp) for __I$use$fp
    ddiv.o(x$fpl$ddiv) refers to dretinf.o(x$fpl$dretinf) for __fpl_dretinf
    ddiv.o(x$fpl$ddiv) refers to dnaninf.o(x$fpl$dnaninf) for __fpl_dnaninf
    dfix.o(x$fpl$dfix) refers (Special) to usenofp.o(x$fpl$usenofp) for __I$use$fp
    dfix.o(x$fpl$dfix) refers to dnaninf.o(x$fpl$dnaninf) for __fpl_dnaninf
    dfix.o(x$fpl$dfixr) refers (Special) to usenofp.o(x$fpl$usenofp) for __I$use$fp
    dfix.o(x$fpl$dfixr) refers to dnaninf.o(x$fpl$dnaninf) for __fpl_dnaninf
    dfixu.o(x$fpl$dfixu) refers (Special) to usenofp.o(x$fpl$usenofp) for __I$use$fp
    dfixu.o(x$fpl$dfixu) refers to dnaninf.o(x$fpl$dnaninf) for __fpl_dnaninf
    dfixu.o(x$fpl$dfixur) refers (Special) to usenofp.o(x$fpl$usenofp) for __I$use$fp
    dfixu.o(x$fpl$dfixur) refers to dnaninf.o(x$fpl$dnaninf) for __fpl_dnaninf
    dflt_clz.o(x$fpl$dfltu) refers (Special) to usenofp.o(x$fpl$usenofp) for __I$use$fp
    dflt_clz.o(x$fpl$dflt) refers (Special) to usenofp.o(x$fpl$usenofp) for __I$use$fp
    dflt_clz.o(x$fpl$dfltn) refers (Special) to usenofp.o(x$fpl$usenofp) for __I$use$fp
    dleqf.o(x$fpl$dleqf) refers (Special) to usenofp.o(x$fpl$usenofp) for __I$use$fp
    dleqf.o(x$fpl$dleqf) refers to dnaninf.o(x$fpl$dnaninf) for __fpl_dnaninf
    dleqf.o(x$fpl$dleqf) refers to dcmpi.o(x$fpl$dcmpinf) for __fpl_dcmp_Inf
    dmul.o(x$fpl$dmul) refers (Special) to usenofp.o(x$fpl$usenofp) for __I$use$fp
    dmul.o(x$fpl$dmul) refers to dretinf.o(x$fpl$dretinf) for __fpl_dretinf
    dmul.o(x$fpl$dmul) refers to dnaninf.o(x$fpl$dnaninf) for __fpl_dnaninf
    drleqf.o(x$fpl$drleqf) refers (Special) to usenofp.o(x$fpl$usenofp) for __I$use$fp
    drleqf.o(x$fpl$drleqf) refers to dleqf.o(x$fpl$dleqf) for __fpl_dcmple_InfNaN
    f2d.o(x$fpl$f2d) refers (Special) to usenofp.o(x$fpl$usenofp) for __I$use$fp
    f2d.o(x$fpl$f2d) refers to fnaninf.o(x$fpl$fnaninf) for __fpl_fnaninf
    f2d.o(x$fpl$f2d) refers to dretinf.o(x$fpl$dretinf) for __fpl_dretinf
    faddsub_clz.o(x$fpl$fadd) refers (Special) to usenofp.o(x$fpl$usenofp) for __I$use$fp
    faddsub_clz.o(x$fpl$fadd) refers to faddsub_clz.o(x$fpl$fsub) for _fsub1
    faddsub_clz.o(x$fpl$fadd) refers to fretinf.o(x$fpl$fretinf) for __fpl_fretinf
    faddsub_clz.o(x$fpl$fadd) refers to fnaninf.o(x$fpl$fnaninf) for __fpl_fnaninf
    faddsub_clz.o(x$fpl$frsb) refers (Special) to usenofp.o(x$fpl$usenofp) for __I$use$fp
    faddsub_clz.o(x$fpl$frsb) refers to faddsub_clz.o(x$fpl$fadd) for _fadd1
    faddsub_clz.o(x$fpl$frsb) refers to faddsub_clz.o(x$fpl$fsub) for _fsub1
    faddsub_clz.o(x$fpl$fsub) refers (Special) to usenofp.o(x$fpl$usenofp) for __I$use$fp
    faddsub_clz.o(x$fpl$fsub) refers to faddsub_clz.o(x$fpl$fadd) for _fadd1
    faddsub_clz.o(x$fpl$fsub) refers to fnaninf.o(x$fpl$fnaninf) for __fpl_fnaninf
    fdiv.o(x$fpl$frdiv) refers (Special) to usenofp.o(x$fpl$usenofp) for __I$use$fp
    fdiv.o(x$fpl$frdiv) refers to fdiv.o(x$fpl$fdiv) for _fdiv1
    fdiv.o(x$fpl$fdiv) refers (Special) to usenofp.o(x$fpl$usenofp) for __I$use$fp
    fdiv.o(x$fpl$fdiv) refers to fretinf.o(x$fpl$fretinf) for __fpl_fretinf
    fdiv.o(x$fpl$fdiv) refers to fnaninf.o(x$fpl$fnaninf) for __fpl_fnaninf
    ffix.o(x$fpl$ffix) refers (Special) to usenofp.o(x$fpl$usenofp) for __I$use$fp
    ffix.o(x$fpl$ffix) refers to fnaninf.o(x$fpl$fnaninf) for __fpl_fnaninf
    ffix.o(x$fpl$ffixr) refers (Special) to usenofp.o(x$fpl$usenofp) for __I$use$fp
    ffix.o(x$fpl$ffixr) refers to fnaninf.o(x$fpl$fnaninf) for __fpl_fnaninf
    fflt_clz.o(x$fpl$ffltu) refers (Special) to usenofp.o(x$fpl$usenofp) for __I$use$fp
    fflt_clz.o(x$fpl$fflt) refers (Special) to usenofp.o(x$fpl$usenofp) for __I$use$fp
    fflt_clz.o(x$fpl$ffltn) refers (Special) to usenofp.o(x$fpl$usenofp) for __I$use$fp
    scalbn.o(x$fpl$scalbn) refers (Special) to usenofp.o(x$fpl$usenofp) for __I$use$fp
    scalbn.o(x$fpl$scalbn) refers to dcheck1.o(x$fpl$dcheck1) for __fpl_dcheck_NaN1
    asin.o(i.__softfp_asin) refers (Special) to usenofp.o(x$fpl$usenofp) for __I$use$fp
    asin.o(i.__softfp_asin) refers to asin.o(i.asin) for asin
    asin.o(i.asin) refers (Special) to usenofp.o(x$fpl$usenofp) for __I$use$fp
    asin.o(i.asin) refers to dunder.o(i.__mathlib_dbl_infnan) for __mathlib_dbl_infnan
    asin.o(i.asin) refers to dmul.o(x$fpl$dmul) for __aeabi_dmul
    asin.o(i.asin) refers to daddsub_clz.o(x$fpl$dadd) for __aeabi_dadd
    asin.o(i.asin) refers to _rserrno.o(.text) for __set_errno
    asin.o(i.asin) refers to dunder.o(i.__mathlib_dbl_invalid) for __mathlib_dbl_invalid
    asin.o(i.asin) refers to fpclassify.o(i.__ARM_fpclassify) for __ARM_fpclassify
    asin.o(i.asin) refers to dunder.o(i.__mathlib_dbl_underflow) for __mathlib_dbl_underflow
    asin.o(i.asin) refers to poly.o(i.__kernel_poly) for __kernel_poly
    asin.o(i.asin) refers to ddiv.o(x$fpl$ddiv) for __aeabi_ddiv
    asin.o(i.asin) refers to daddsub_clz.o(x$fpl$drsb) for __aeabi_drsub
    asin.o(i.asin) refers to scalbn.o(x$fpl$scalbn) for __ARM_scalbn
    asin.o(i.asin) refers to sqrt.o(i.sqrt) for sqrt
    asin.o(i.asin) refers to daddsub_clz.o(x$fpl$dsub) for __aeabi_dsub
    asin.o(i.asin) refers to asin.o(.constdata) for .constdata
    asin.o(.constdata) refers (Special) to usenofp.o(x$fpl$usenofp) for __I$use$fp
    asin_x.o(i.____softfp_asin$lsc) refers (Special) to usenofp.o(x$fpl$usenofp) for __I$use$fp
    asin_x.o(i.____softfp_asin$lsc) refers to asin_x.o(i.__asin$lsc) for __asin$lsc
    asin_x.o(i.__asin$lsc) refers (Special) to usenofp.o(x$fpl$usenofp) for __I$use$fp
    asin_x.o(i.__asin$lsc) refers to dunder.o(i.__mathlib_dbl_infnan) for __mathlib_dbl_infnan
    asin_x.o(i.__asin$lsc) refers to dmul.o(x$fpl$dmul) for __aeabi_dmul
    asin_x.o(i.__asin$lsc) refers to daddsub_clz.o(x$fpl$dadd) for __aeabi_dadd
    asin_x.o(i.__asin$lsc) refers to _rserrno.o(.text) for __set_errno
    asin_x.o(i.__asin$lsc) refers to poly.o(i.__kernel_poly) for __kernel_poly
    asin_x.o(i.__asin$lsc) refers to ddiv.o(x$fpl$ddiv) for __aeabi_ddiv
    asin_x.o(i.__asin$lsc) refers to daddsub_clz.o(x$fpl$drsb) for __aeabi_drsub
    asin_x.o(i.__asin$lsc) refers to scalbn.o(x$fpl$scalbn) for __ARM_scalbn
    asin_x.o(i.__asin$lsc) refers to sqrt.o(i.sqrt) for sqrt
    asin_x.o(i.__asin$lsc) refers to daddsub_clz.o(x$fpl$dsub) for __aeabi_dsub
    asin_x.o(i.__asin$lsc) refers to asin_x.o(.constdata) for .constdata
    asin_x.o(.constdata) refers (Special) to usenofp.o(x$fpl$usenofp) for __I$use$fp
    atan.o(i.__softfp_atan) refers (Special) to usenofp.o(x$fpl$usenofp) for __I$use$fp
    atan.o(i.__softfp_atan) refers to atan.o(i.atan) for atan
    atan.o(i.atan) refers (Special) to usenofp.o(x$fpl$usenofp) for __I$use$fp
    atan.o(i.atan) refers to dunder.o(i.__mathlib_dbl_infnan) for __mathlib_dbl_infnan
    atan.o(i.atan) refers to fpclassify.o(i.__ARM_fpclassify) for __ARM_fpclassify
    atan.o(i.atan) refers to dunder.o(i.__mathlib_dbl_underflow) for __mathlib_dbl_underflow
    atan.o(i.atan) refers to daddsub_clz.o(x$fpl$dadd) for __aeabi_dadd
    atan.o(i.atan) refers to scalbn.o(x$fpl$scalbn) for __ARM_scalbn
    atan.o(i.atan) refers to daddsub_clz.o(x$fpl$dsub) for __aeabi_dsub
    atan.o(i.atan) refers to ddiv.o(x$fpl$ddiv) for __aeabi_ddiv
    atan.o(i.atan) refers to dmul.o(x$fpl$dmul) for __aeabi_dmul
    atan.o(i.atan) refers to poly.o(i.__kernel_poly) for __kernel_poly
    atan.o(i.atan) refers to daddsub_clz.o(x$fpl$drsb) for __aeabi_drsub
    atan.o(i.atan) refers to atan.o(.constdata) for .constdata
    atan.o(.constdata) refers (Special) to usenofp.o(x$fpl$usenofp) for __I$use$fp
    atan_x.o(i.____softfp_atan$lsc) refers (Special) to usenofp.o(x$fpl$usenofp) for __I$use$fp
    atan_x.o(i.____softfp_atan$lsc) refers to atan_x.o(i.__atan$lsc) for __atan$lsc
    atan_x.o(i.__atan$lsc) refers (Special) to usenofp.o(x$fpl$usenofp) for __I$use$fp
    atan_x.o(i.__atan$lsc) refers to dunder.o(i.__mathlib_dbl_infnan) for __mathlib_dbl_infnan
    atan_x.o(i.__atan$lsc) refers to daddsub_clz.o(x$fpl$dadd) for __aeabi_dadd
    atan_x.o(i.__atan$lsc) refers to scalbn.o(x$fpl$scalbn) for __ARM_scalbn
    atan_x.o(i.__atan$lsc) refers to daddsub_clz.o(x$fpl$dsub) for __aeabi_dsub
    atan_x.o(i.__atan$lsc) refers to ddiv.o(x$fpl$ddiv) for __aeabi_ddiv
    atan_x.o(i.__atan$lsc) refers to dmul.o(x$fpl$dmul) for __aeabi_dmul
    atan_x.o(i.__atan$lsc) refers to poly.o(i.__kernel_poly) for __kernel_poly
    atan_x.o(i.__atan$lsc) refers to daddsub_clz.o(x$fpl$drsb) for __aeabi_drsub
    atan_x.o(i.__atan$lsc) refers to atan_x.o(.constdata) for .constdata
    atan_x.o(.constdata) refers (Special) to usenofp.o(x$fpl$usenofp) for __I$use$fp
    atan2.o(i.__softfp_atan2) refers (Special) to usenofp.o(x$fpl$usenofp) for __I$use$fp
    atan2.o(i.__softfp_atan2) refers to atan2.o(i.atan2) for atan2
    atan2.o(i.atan2) refers (Special) to usenofp.o(x$fpl$usenofp) for __I$use$fp
    atan2.o(i.atan2) refers to dunder.o(i.__mathlib_dbl_infnan2) for __mathlib_dbl_infnan2
    atan2.o(i.atan2) refers to atan.o(i.atan) for atan
    atan2.o(i.atan2) refers to ddiv.o(x$fpl$ddiv) for __aeabi_ddiv
    atan2.o(i.atan2) refers to daddsub_clz.o(x$fpl$dsub) for __aeabi_dsub
    atan2.o(i.atan2) refers to daddsub_clz.o(x$fpl$drsb) for __aeabi_drsub
    atan2.o(i.atan2) refers to qnan.o(.constdata) for __mathlib_zero
    atan2_x.o(i.____softfp_atan2$lsc) refers (Special) to usenofp.o(x$fpl$usenofp) for __I$use$fp
    atan2_x.o(i.____softfp_atan2$lsc) refers to atan2_x.o(i.__atan2$lsc) for __atan2$lsc
    atan2_x.o(i.__atan2$lsc) refers (Special) to usenofp.o(x$fpl$usenofp) for __I$use$fp
    atan2_x.o(i.__atan2$lsc) refers to dunder.o(i.__mathlib_dbl_infnan2) for __mathlib_dbl_infnan2
    atan2_x.o(i.__atan2$lsc) refers to atan.o(i.atan) for atan
    atan2_x.o(i.__atan2$lsc) refers to _rserrno.o(.text) for __set_errno
    atan2_x.o(i.__atan2$lsc) refers to ddiv.o(x$fpl$ddiv) for __aeabi_ddiv
    atan2_x.o(i.__atan2$lsc) refers to daddsub_clz.o(x$fpl$dsub) for __aeabi_dsub
    atan2_x.o(i.__atan2$lsc) refers to daddsub_clz.o(x$fpl$drsb) for __aeabi_drsub
    atan2_x.o(i.__atan2$lsc) refers to qnan.o(.constdata) for __mathlib_zero
    cos.o(i.__softfp_cos) refers (Special) to usenofp.o(x$fpl$usenofp) for __I$use$fp
    cos.o(i.__softfp_cos) refers to cos.o(i.cos) for cos
    cos.o(i.cos) refers (Special) to usenofp.o(x$fpl$usenofp) for __I$use$fp
    cos.o(i.cos) refers to _rserrno.o(.text) for __set_errno
    cos.o(i.cos) refers to dunder.o(i.__mathlib_dbl_invalid) for __mathlib_dbl_invalid
    cos.o(i.cos) refers to dunder.o(i.__mathlib_dbl_infnan) for __mathlib_dbl_infnan
    cos.o(i.cos) refers to rred.o(i.__ieee754_rem_pio2) for __ieee754_rem_pio2
    cos.o(i.cos) refers to sin_i.o(i.__kernel_sin) for __kernel_sin
    cos.o(i.cos) refers to cos_i.o(i.__kernel_cos) for __kernel_cos
    cos_x.o(i.____softfp_cos$lsc) refers (Special) to usenofp.o(x$fpl$usenofp) for __I$use$fp
    cos_x.o(i.____softfp_cos$lsc) refers to cos_x.o(i.__cos$lsc) for __cos$lsc
    cos_x.o(i.__cos$lsc) refers (Special) to usenofp.o(x$fpl$usenofp) for __I$use$fp
    cos_x.o(i.__cos$lsc) refers to _rserrno.o(.text) for __set_errno
    cos_x.o(i.__cos$lsc) refers to dunder.o(i.__mathlib_dbl_infnan) for __mathlib_dbl_infnan
    cos_x.o(i.__cos$lsc) refers to rred.o(i.__ieee754_rem_pio2) for __ieee754_rem_pio2
    cos_x.o(i.__cos$lsc) refers to sin_i.o(i.__kernel_sin) for __kernel_sin
    cos_x.o(i.__cos$lsc) refers to cos_i.o(i.__kernel_cos) for __kernel_cos
    pow.o(i.__softfp_pow) refers (Special) to usenofp.o(x$fpl$usenofp) for __I$use$fp
    pow.o(i.__softfp_pow) refers to pow.o(i.pow) for pow
    pow.o(i.pow) refers (Special) to usenofp.o(x$fpl$usenofp) for __I$use$fp
    pow.o(i.pow) refers to dunder.o(i.__mathlib_dbl_infnan2) for __mathlib_dbl_infnan2
    pow.o(i.pow) refers to _rserrno.o(.text) for __set_errno
    pow.o(i.pow) refers to dunder.o(i.__mathlib_dbl_divzero) for __mathlib_dbl_divzero
    pow.o(i.pow) refers to ddiv.o(x$fpl$ddiv) for __aeabi_ddiv
    pow.o(i.pow) refers to sqrt.o(i.sqrt) for sqrt
    pow.o(i.pow) refers to dmul.o(x$fpl$dmul) for __aeabi_dmul
    pow.o(i.pow) refers to dflt_clz.o(x$fpl$dflt) for __aeabi_i2d
    pow.o(i.pow) refers to dunder.o(i.__mathlib_dbl_invalid) for __mathlib_dbl_invalid
    pow.o(i.pow) refers to dunder.o(i.__mathlib_dbl_overflow) for __mathlib_dbl_overflow
    pow.o(i.pow) refers to dunder.o(i.__mathlib_dbl_underflow) for __mathlib_dbl_underflow
    pow.o(i.pow) refers to daddsub_clz.o(x$fpl$dsub) for __aeabi_dsub
    pow.o(i.pow) refers to scalbn.o(x$fpl$scalbn) for __ARM_scalbn
    pow.o(i.pow) refers to daddsub_clz.o(x$fpl$drsb) for __aeabi_drsub
    pow.o(i.pow) refers to daddsub_clz.o(x$fpl$dadd) for __aeabi_dadd
    pow.o(i.pow) refers to qnan.o(.constdata) for __mathlib_zero
    pow.o(i.pow) refers to poly.o(i.__kernel_poly) for __kernel_poly
    pow.o(i.pow) refers to drleqf.o(x$fpl$drleqf) for __aeabi_cdrcmple
    pow.o(i.pow) refers to pow.o(.constdata) for .constdata
    pow.o(i.pow) refers to fpclassify.o(i.__ARM_fpclassify) for __ARM_fpclassify
    pow.o(.constdata) refers (Special) to usenofp.o(x$fpl$usenofp) for __I$use$fp
    pow_x.o(i.____softfp_pow$lsc) refers (Special) to usenofp.o(x$fpl$usenofp) for __I$use$fp
    pow_x.o(i.____softfp_pow$lsc) refers to pow_x.o(i.__pow$lsc) for __pow$lsc
    pow_x.o(i.__pow$lsc) refers (Special) to usenofp.o(x$fpl$usenofp) for __I$use$fp
    pow_x.o(i.__pow$lsc) refers to dunder.o(i.__mathlib_dbl_infnan2) for __mathlib_dbl_infnan2
    pow_x.o(i.__pow$lsc) refers to _rserrno.o(.text) for __set_errno
    pow_x.o(i.__pow$lsc) refers to ddiv.o(x$fpl$ddiv) for __aeabi_ddiv
    pow_x.o(i.__pow$lsc) refers to sqrt.o(i.sqrt) for sqrt
    pow_x.o(i.__pow$lsc) refers to dmul.o(x$fpl$dmul) for __aeabi_dmul
    pow_x.o(i.__pow$lsc) refers to dflt_clz.o(x$fpl$dflt) for __aeabi_i2d
    pow_x.o(i.__pow$lsc) refers to daddsub_clz.o(x$fpl$dsub) for __aeabi_dsub
    pow_x.o(i.__pow$lsc) refers to scalbn.o(x$fpl$scalbn) for __ARM_scalbn
    pow_x.o(i.__pow$lsc) refers to daddsub_clz.o(x$fpl$drsb) for __aeabi_drsub
    pow_x.o(i.__pow$lsc) refers to daddsub_clz.o(x$fpl$dadd) for __aeabi_dadd
    pow_x.o(i.__pow$lsc) refers to qnan.o(.constdata) for __mathlib_zero
    pow_x.o(i.__pow$lsc) refers to poly.o(i.__kernel_poly) for __kernel_poly
    pow_x.o(i.__pow$lsc) refers to drleqf.o(x$fpl$drleqf) for __aeabi_cdrcmple
    pow_x.o(i.__pow$lsc) refers to pow_x.o(.constdata) for .constdata
    pow_x.o(.constdata) refers (Special) to usenofp.o(x$fpl$usenofp) for __I$use$fp
    sin.o(i.__softfp_sin) refers (Special) to usenofp.o(x$fpl$usenofp) for __I$use$fp
    sin.o(i.__softfp_sin) refers to sin.o(i.sin) for sin
    sin.o(i.sin) refers (Special) to usenofp.o(x$fpl$usenofp) for __I$use$fp
    sin.o(i.sin) refers to _rserrno.o(.text) for __set_errno
    sin.o(i.sin) refers to dunder.o(i.__mathlib_dbl_invalid) for __mathlib_dbl_invalid
    sin.o(i.sin) refers to dunder.o(i.__mathlib_dbl_infnan) for __mathlib_dbl_infnan
    sin.o(i.sin) refers to rred.o(i.__ieee754_rem_pio2) for __ieee754_rem_pio2
    sin.o(i.sin) refers to cos_i.o(i.__kernel_cos) for __kernel_cos
    sin.o(i.sin) refers to sin_i.o(i.__kernel_sin) for __kernel_sin
    sin_x.o(i.____softfp_sin$lsc) refers (Special) to usenofp.o(x$fpl$usenofp) for __I$use$fp
    sin_x.o(i.____softfp_sin$lsc) refers to sin_x.o(i.__sin$lsc) for __sin$lsc
    sin_x.o(i.__sin$lsc) refers (Special) to usenofp.o(x$fpl$usenofp) for __I$use$fp
    sin_x.o(i.__sin$lsc) refers to _rserrno.o(.text) for __set_errno
    sin_x.o(i.__sin$lsc) refers to dunder.o(i.__mathlib_dbl_infnan) for __mathlib_dbl_infnan
    sin_x.o(i.__sin$lsc) refers to rred.o(i.__ieee754_rem_pio2) for __ieee754_rem_pio2
    sin_x.o(i.__sin$lsc) refers to cos_i.o(i.__kernel_cos) for __kernel_cos
    sin_x.o(i.__sin$lsc) refers to sin_i.o(i.__kernel_sin) for __kernel_sin
    sqrt.o(i.__softfp_sqrt) refers (Special) to usenofp.o(x$fpl$usenofp) for __I$use$fp
    sqrt.o(i.__softfp_sqrt) refers to dsqrt_noumaal.o(x$fpl$dsqrt) for _dsqrt
    sqrt.o(i.__softfp_sqrt) refers to _rserrno.o(.text) for __set_errno
    sqrt.o(i.sqrt) refers (Special) to usenofp.o(x$fpl$usenofp) for __I$use$fp
    sqrt.o(i.sqrt) refers to dsqrt_noumaal.o(x$fpl$dsqrt) for _dsqrt
    sqrt.o(i.sqrt) refers to _rserrno.o(.text) for __set_errno
    sqrt_x.o(i.____softfp_sqrt$lsc) refers (Special) to usenofp.o(x$fpl$usenofp) for __I$use$fp
    sqrt_x.o(i.____softfp_sqrt$lsc) refers to dleqf.o(x$fpl$dleqf) for __aeabi_cdcmple
    sqrt_x.o(i.____softfp_sqrt$lsc) refers to _rserrno.o(.text) for __set_errno
    sqrt_x.o(i.____softfp_sqrt$lsc) refers to dsqrt_noumaal.o(x$fpl$dsqrt) for _dsqrt
    sqrt_x.o(i.__sqrt$lsc) refers (Special) to usenofp.o(x$fpl$usenofp) for __I$use$fp
    sqrt_x.o(i.__sqrt$lsc) refers to dleqf.o(x$fpl$dleqf) for __aeabi_cdcmple
    sqrt_x.o(i.__sqrt$lsc) refers to _rserrno.o(.text) for __set_errno
    sqrt_x.o(i.__sqrt$lsc) refers to dsqrt_noumaal.o(x$fpl$dsqrt) for _dsqrt
    __rtentry.o(.ARM.Collect$$rtentry$$00000000) refers (Special) to __rtentry2.o(.ARM.Collect$$rtentry$$0000000A) for __rt_entry_li
    __rtentry.o(.ARM.Collect$$rtentry$$00000000) refers (Special) to __rtentry2.o(.ARM.Collect$$rtentry$$0000000D) for __rt_entry_main
    __rtentry.o(.ARM.Collect$$rtentry$$00000000) refers (Special) to __rtentry2.o(.ARM.Collect$$rtentry$$0000000C) for __rt_entry_postli_1
    __rtentry.o(.ARM.Collect$$rtentry$$00000000) refers (Special) to __rtentry2.o(.ARM.Collect$$rtentry$$00000009) for __rt_entry_postsh_1
    __rtentry.o(.ARM.Collect$$rtentry$$00000000) refers (Special) to __rtentry2.o(.ARM.Collect$$rtentry$$00000002) for __rt_entry_presh_1
    __rtentry.o(.ARM.Collect$$rtentry$$00000000) refers (Special) to __rtentry4.o(.ARM.Collect$$rtentry$$00000004) for __rt_entry_sh
    aeabi_ldiv0_sigfpe.o(.text) refers to rt_div0.o(.text) for __rt_div0
    _rserrno.o(.text) refers to rt_errno_addr_intlibspace.o(.text) for __aeabi_errno_addr
    _printf_intcommon.o(.text) refers (Weak) to _printf_pad.o(.text) for _printf_pre_padding
    _printf_intcommon.o(.text) refers (Weak) to _printf_pad.o(.text) for _printf_pre_padding
    _printf_intcommon.o(.text) refers (Weak) to _printf_pad.o(.text) for _printf_post_padding
    _printf_char_common.o(.text) refers to __printf_flags_ss_wp.o(.text) for __printf
    _printf_char.o(.text) refers (Weak) to _printf_str.o(.text) for _printf_str
    _printf_char_file.o(.text) refers to _printf_char_common.o(.text) for _printf_char_common
    _printf_char_file.o(.text) refers to ferror.o(.text) for ferror
    _printf_char_file.o(.text) refers to usart1.o(.text) for fputc
    _printf_wctomb.o(.text) refers (Special) to _printf_wchar.o(.text) for _printf_lcs_common
    _printf_wctomb.o(.text) refers to _wcrtomb.o(.text) for _wcrtomb
    _printf_wctomb.o(.text) refers (Weak) to _printf_pad.o(.text) for _printf_pre_padding
    _printf_wctomb.o(.text) refers (Weak) to _printf_pad.o(.text) for _printf_post_padding
    _printf_wctomb.o(.text) refers to _printf_wctomb.o(.constdata) for .constdata
    _printf_wctomb.o(.constdata) refers (Special) to _printf_wchar.o(.text) for _printf_lcs_common
    _printf_longlong_dec.o(.text) refers to lludiv10.o(.text) for _ll_udiv10
    _printf_longlong_dec.o(.text) refers to _printf_intcommon.o(.text) for _printf_int_common
    _printf_oct_ll.o(.text) refers to _printf_intcommon.o(.text) for _printf_int_common
    _printf_oct_int.o(.text) refers (Weak) to _printf_truncate.o(.text) for _printf_truncate_unsigned
    _printf_oct_int.o(.text) refers to _printf_intcommon.o(.text) for _printf_int_common
    _printf_oct_int_ll.o(.text) refers to _printf_intcommon.o(.text) for _printf_int_common
    _printf_oct_int_ll.o(.text) refers (Weak) to _printf_truncate.o(.text) for _printf_truncate_unsigned
    _printf_c.o(.ARM.Collect$$_printf_percent$$00000013) refers (Weak) to _printf_char.o(.text) for _printf_char
    _printf_n.o(.ARM.Collect$$_printf_percent$$00000001) refers (Weak) to _printf_charcount.o(.text) for _printf_charcount
    _printf_p.o(.ARM.Collect$$_printf_percent$$00000002) refers (Weak) to _printf_hex_int_ll_ptr.o(.text) for _printf_hex_ptr
    _printf_o.o(.ARM.Collect$$_printf_percent$$0000000B) refers (Weak) to _printf_oct_int_ll.o(.text) for _printf_int_oct
    _printf_i.o(.ARM.Collect$$_printf_percent$$00000008) refers (Weak) to _printf_dec.o(.text) for _printf_int_dec
    _printf_u.o(.ARM.Collect$$_printf_percent$$0000000A) refers (Weak) to _printf_dec.o(.text) for _printf_int_dec
    _printf_f.o(.ARM.Collect$$_printf_percent$$00000003) refers (Weak) to printf1.o(x$fpl$printf1) for _printf_fp_dec
    _printf_e.o(.ARM.Collect$$_printf_percent$$00000004) refers (Weak) to printf1.o(x$fpl$printf1) for _printf_fp_dec
    _printf_g.o(.ARM.Collect$$_printf_percent$$00000005) refers (Weak) to printf1.o(x$fpl$printf1) for _printf_fp_dec
    _printf_a.o(.ARM.Collect$$_printf_percent$$00000006) refers (Weak) to printf2.o(x$fpl$printf2) for _printf_fp_hex
    _printf_lli.o(.ARM.Collect$$_printf_percent$$0000000D) refers (Special) to _printf_ll.o(.ARM.Collect$$_printf_percent$$00000007) for _printf_ll
    _printf_lli.o(.ARM.Collect$$_printf_percent$$0000000D) refers (Weak) to _printf_longlong_dec.o(.text) for _printf_longlong_dec
    _printf_lld.o(.ARM.Collect$$_printf_percent$$0000000E) refers (Special) to _printf_ll.o(.ARM.Collect$$_printf_percent$$00000007) for _printf_ll
    _printf_lld.o(.ARM.Collect$$_printf_percent$$0000000E) refers (Weak) to _printf_longlong_dec.o(.text) for _printf_longlong_dec
    _printf_llu.o(.ARM.Collect$$_printf_percent$$0000000F) refers (Special) to _printf_ll.o(.ARM.Collect$$_printf_percent$$00000007) for _printf_ll
    _printf_llu.o(.ARM.Collect$$_printf_percent$$0000000F) refers (Weak) to _printf_longlong_dec.o(.text) for _printf_longlong_dec
    _printf_lc.o(.ARM.Collect$$_printf_percent$$00000015) refers (Special) to _printf_l.o(.ARM.Collect$$_printf_percent$$00000012) for _printf_l
    _printf_lc.o(.ARM.Collect$$_printf_percent$$00000015) refers (Weak) to _printf_wchar.o(.text) for _printf_wchar
    _printf_ls.o(.ARM.Collect$$_printf_percent$$00000016) refers (Special) to _printf_l.o(.ARM.Collect$$_printf_percent$$00000012) for _printf_l
    _printf_ls.o(.ARM.Collect$$_printf_percent$$00000016) refers (Weak) to _printf_wchar.o(.text) for _printf_wstring
    _printf_llo.o(.ARM.Collect$$_printf_percent$$00000010) refers (Special) to _printf_ll.o(.ARM.Collect$$_printf_percent$$00000007) for _printf_ll
    _printf_llo.o(.ARM.Collect$$_printf_percent$$00000010) refers (Weak) to _printf_oct_int_ll.o(.text) for _printf_ll_oct
    _printf_llx.o(.ARM.Collect$$_printf_percent$$00000011) refers (Special) to _printf_ll.o(.ARM.Collect$$_printf_percent$$00000007) for _printf_ll
    _printf_llx.o(.ARM.Collect$$_printf_percent$$00000011) refers (Weak) to _printf_hex_int_ll_ptr.o(.text) for _printf_ll_hex
    scanf_char.o(.text) refers to _scanf.o(.text) for __vfscanf
    scanf_char.o(.text) refers to isspace.o(.text) for isspace
    strtok_int.o(.text) refers to strspn.o(.text) for strspn
    strtok_int.o(.text) refers to strcspn.o(.text) for strcspn
    dcheck1.o(x$fpl$dcheck1) refers (Special) to usenofp.o(x$fpl$usenofp) for __I$use$fp
    dcheck1.o(x$fpl$dcheck1) refers to retnan.o(x$fpl$retnan) for __fpl_return_NaN
    dcmpi.o(x$fpl$dcmpinf) refers (Special) to usenofp.o(x$fpl$usenofp) for __I$use$fp
    dnaninf.o(x$fpl$dnaninf) refers (Special) to usenofp.o(x$fpl$usenofp) for __I$use$fp
    dretinf.o(x$fpl$dretinf) refers (Special) to usenofp.o(x$fpl$usenofp) for __I$use$fp
    dsqrt_noumaal.o(x$fpl$dsqrt) refers (Special) to usenofp.o(x$fpl$usenofp) for __I$use$fp
    dsqrt_noumaal.o(x$fpl$dsqrt) refers to dnaninf.o(x$fpl$dnaninf) for __fpl_dnaninf
    fnaninf.o(x$fpl$fnaninf) refers (Special) to usenofp.o(x$fpl$usenofp) for __I$use$fp
    fretinf.o(x$fpl$fretinf) refers (Special) to usenofp.o(x$fpl$usenofp) for __I$use$fp
    printf1.o(x$fpl$printf1) refers to _printf_fp_dec.o(.text) for _printf_fp_dec_real
    printf2.o(x$fpl$printf2) refers to _printf_fp_hex.o(.text) for _printf_fp_hex_real
    printf2b.o(x$fpl$printf2) refers to _printf_fp_hex.o(.text) for _printf_fp_hex_real
    cos_i.o(i.__kernel_cos) refers (Special) to usenofp.o(x$fpl$usenofp) for __I$use$fp
    cos_i.o(i.__kernel_cos) refers to dfix.o(x$fpl$dfix) for __aeabi_d2iz
    cos_i.o(i.__kernel_cos) refers to dmul.o(x$fpl$dmul) for __aeabi_dmul
    cos_i.o(i.__kernel_cos) refers to poly.o(i.__kernel_poly) for __kernel_poly
    cos_i.o(i.__kernel_cos) refers to daddsub_clz.o(x$fpl$dsub) for __aeabi_dsub
    cos_i.o(i.__kernel_cos) refers to scalbn.o(x$fpl$scalbn) for __ARM_scalbn
    cos_i.o(i.__kernel_cos) refers to daddsub_clz.o(x$fpl$drsb) for __aeabi_drsub
    cos_i.o(i.__kernel_cos) refers to cos_i.o(.constdata) for .constdata
    cos_i.o(.constdata) refers (Special) to usenofp.o(x$fpl$usenofp) for __I$use$fp
    dunder.o(i.__mathlib_dbl_divzero) refers to ddiv.o(x$fpl$ddiv) for __aeabi_ddiv
    dunder.o(i.__mathlib_dbl_infnan) refers to scalbn.o(x$fpl$scalbn) for __ARM_scalbn
    dunder.o(i.__mathlib_dbl_infnan2) refers to daddsub_clz.o(x$fpl$dadd) for __aeabi_dadd
    dunder.o(i.__mathlib_dbl_invalid) refers to ddiv.o(x$fpl$ddiv) for __aeabi_ddiv
    dunder.o(i.__mathlib_dbl_overflow) refers to scalbn.o(x$fpl$scalbn) for __ARM_scalbn
    dunder.o(i.__mathlib_dbl_posinfnan) refers to dmul.o(x$fpl$dmul) for __aeabi_dmul
    dunder.o(i.__mathlib_dbl_underflow) refers to scalbn.o(x$fpl$scalbn) for __ARM_scalbn
    fpclassify.o(i.__ARM_fpclassify) refers (Special) to usenofp.o(x$fpl$usenofp) for __I$use$fp
    poly.o(i.__kernel_poly) refers (Special) to usenofp.o(x$fpl$usenofp) for __I$use$fp
    poly.o(i.__kernel_poly) refers to dmul.o(x$fpl$dmul) for __aeabi_dmul
    poly.o(i.__kernel_poly) refers to daddsub_clz.o(x$fpl$dadd) for __aeabi_dadd
    qnan.o(.constdata) refers (Special) to usenofp.o(x$fpl$usenofp) for __I$use$fp
    rred.o(i.__ieee754_rem_pio2) refers (Special) to usenofp.o(x$fpl$usenofp) for __I$use$fp
    rred.o(i.__ieee754_rem_pio2) refers to daddsub_clz.o(x$fpl$dsub) for __aeabi_dsub
    rred.o(i.__ieee754_rem_pio2) refers to daddsub_clz.o(x$fpl$dadd) for __aeabi_dadd
    rred.o(i.__ieee754_rem_pio2) refers to dmul.o(x$fpl$dmul) for __aeabi_dmul
    rred.o(i.__ieee754_rem_pio2) refers to dfix.o(x$fpl$dfix) for __aeabi_d2iz
    rred.o(i.__ieee754_rem_pio2) refers to dflt_clz.o(x$fpl$dflt) for __aeabi_i2d
    rred.o(i.__ieee754_rem_pio2) refers to daddsub_clz.o(x$fpl$drsb) for __aeabi_drsub
    rred.o(i.__ieee754_rem_pio2) refers to dflt_clz.o(x$fpl$dfltu) for __aeabi_ui2d
    rred.o(i.__ieee754_rem_pio2) refers to scalbn.o(x$fpl$scalbn) for __ARM_scalbn
    rred.o(i.__ieee754_rem_pio2) refers to rred.o(.constdata) for .constdata
    rred.o(i.__use_accurate_range_reduction) refers (Special) to usenofp.o(x$fpl$usenofp) for __I$use$fp
    rred.o(.constdata) refers (Special) to usenofp.o(x$fpl$usenofp) for __I$use$fp
    sin_i.o(i.__kernel_sin) refers (Special) to usenofp.o(x$fpl$usenofp) for __I$use$fp
    sin_i.o(i.__kernel_sin) refers to fpclassify.o(i.__ARM_fpclassify) for __ARM_fpclassify
    sin_i.o(i.__kernel_sin) refers to dunder.o(i.__mathlib_dbl_underflow) for __mathlib_dbl_underflow
    sin_i.o(i.__kernel_sin) refers to dmul.o(x$fpl$dmul) for __aeabi_dmul
    sin_i.o(i.__kernel_sin) refers to poly.o(i.__kernel_poly) for __kernel_poly
    sin_i.o(i.__kernel_sin) refers to scalbn.o(x$fpl$scalbn) for __ARM_scalbn
    sin_i.o(i.__kernel_sin) refers to daddsub_clz.o(x$fpl$dsub) for __aeabi_dsub
    sin_i.o(i.__kernel_sin) refers to daddsub_clz.o(x$fpl$drsb) for __aeabi_drsub
    sin_i.o(i.__kernel_sin) refers to daddsub_clz.o(x$fpl$dadd) for __aeabi_dadd
    sin_i.o(i.__kernel_sin) refers to sin_i.o(.constdata) for .constdata
    sin_i.o(.constdata) refers (Special) to usenofp.o(x$fpl$usenofp) for __I$use$fp
    sin_i_x.o(i.____kernel_sin$lsc) refers (Special) to usenofp.o(x$fpl$usenofp) for __I$use$fp
    sin_i_x.o(i.____kernel_sin$lsc) refers to dmul.o(x$fpl$dmul) for __aeabi_dmul
    sin_i_x.o(i.____kernel_sin$lsc) refers to poly.o(i.__kernel_poly) for __kernel_poly
    sin_i_x.o(i.____kernel_sin$lsc) refers to scalbn.o(x$fpl$scalbn) for __ARM_scalbn
    sin_i_x.o(i.____kernel_sin$lsc) refers to daddsub_clz.o(x$fpl$dsub) for __aeabi_dsub
    sin_i_x.o(i.____kernel_sin$lsc) refers to daddsub_clz.o(x$fpl$drsb) for __aeabi_drsub
    sin_i_x.o(i.____kernel_sin$lsc) refers to daddsub_clz.o(x$fpl$dadd) for __aeabi_dadd
    sin_i_x.o(i.____kernel_sin$lsc) refers to sin_i_x.o(.constdata) for .constdata
    sin_i_x.o(.constdata) refers (Special) to usenofp.o(x$fpl$usenofp) for __I$use$fp
    __rtentry2.o(.ARM.Collect$$rtentry$$00000008) refers to boardinit2.o(.text) for _platform_post_stackheap_init
    __rtentry2.o(.ARM.Collect$$rtentry$$0000000A) refers to libinit.o(.ARM.Collect$$libinit$$00000000) for __rt_lib_init
    __rtentry2.o(.ARM.Collect$$rtentry$$0000000B) refers to boardinit3.o(.text) for _platform_post_lib_init
    __rtentry2.o(.ARM.Collect$$rtentry$$0000000D) refers to main.o(.text) for main
    __rtentry2.o(.ARM.Collect$$rtentry$$0000000D) refers to exit.o(.text) for exit
    __rtentry2.o(.ARM.exidx) refers to __rtentry2.o(.ARM.Collect$$rtentry$$00000001) for .ARM.Collect$$rtentry$$00000001
    __rtentry2.o(.ARM.exidx) refers to __rtentry2.o(.ARM.Collect$$rtentry$$00000008) for .ARM.Collect$$rtentry$$00000008
    __rtentry2.o(.ARM.exidx) refers to __rtentry2.o(.ARM.Collect$$rtentry$$0000000A) for .ARM.Collect$$rtentry$$0000000A
    __rtentry2.o(.ARM.exidx) refers to __rtentry2.o(.ARM.Collect$$rtentry$$0000000B) for .ARM.Collect$$rtentry$$0000000B
    __rtentry2.o(.ARM.exidx) refers to __rtentry2.o(.ARM.Collect$$rtentry$$0000000D) for .ARM.Collect$$rtentry$$0000000D
    __rtentry4.o(.ARM.Collect$$rtentry$$00000004) refers to sys_stackheap_outer.o(.text) for __user_setup_stackheap
    __rtentry4.o(.ARM.exidx) refers to __rtentry4.o(.ARM.Collect$$rtentry$$00000004) for .ARM.Collect$$rtentry$$00000004
    rt_div0.o(.text) refers to defsig_fpe_outer.o(.text) for __rt_SIGFPE
    rt_errno_addr.o(.text) refers to rt_errno_addr.o(.bss) for __aeabi_errno_addr_data
    rt_errno_addr_intlibspace.o(.text) refers to libspace.o(.bss) for __libspace_start
    isspace.o(.text) refers to rt_ctype_table.o(.text) for __rt_ctype_table
    _printf_fp_dec.o(.text) refers (Special) to usenofp.o(x$fpl$usenofp) for __I$use$fp
    _printf_fp_dec.o(.text) refers (Special) to lc_numeric_c.o(locale$$code) for _get_lc_numeric
    _printf_fp_dec.o(.text) refers to bigflt0.o(.text) for _btod_etento
    _printf_fp_dec.o(.text) refers to btod.o(CL$$btod_d2e) for _btod_d2e
    _printf_fp_dec.o(.text) refers to btod.o(CL$$btod_ediv) for _btod_ediv
    _printf_fp_dec.o(.text) refers to btod.o(CL$$btod_emul) for _btod_emul
    _printf_fp_dec.o(.text) refers to lludiv10.o(.text) for _ll_udiv10
    _printf_fp_dec.o(.text) refers to fpclassify.o(i.__ARM_fpclassify) for __ARM_fpclassify
    _printf_fp_dec.o(.text) refers to _printf_fp_infnan.o(.text) for _printf_fp_infnan
    _printf_fp_dec.o(.text) refers (Weak) to _printf_pad.o(.text) for _printf_pre_padding
    _printf_fp_dec.o(.text) refers (Weak) to _printf_pad.o(.text) for _printf_pre_padding
    _printf_fp_dec.o(.text) refers to rt_locale_intlibspace.o(.text) for __rt_locale
    _printf_fp_dec.o(.text) refers (Weak) to _printf_pad.o(.text) for _printf_post_padding
    _printf_fp_hex.o(.text) refers (Special) to usenofp.o(x$fpl$usenofp) for __I$use$fp
    _printf_fp_hex.o(.text) refers to fpclassify.o(i.__ARM_fpclassify) for __ARM_fpclassify
    _printf_fp_hex.o(.text) refers to _printf_fp_infnan.o(.text) for _printf_fp_infnan
    _printf_fp_hex.o(.text) refers (Weak) to _printf_pad.o(.text) for _printf_pre_padding
    _printf_fp_hex.o(.text) refers (Weak) to _printf_pad.o(.text) for _printf_pre_padding
    _printf_fp_hex.o(.text) refers (Weak) to _printf_pad.o(.text) for _printf_post_padding
    _printf_fp_hex.o(.text) refers to _printf_fp_hex.o(.constdata) for .constdata
    _printf_fp_hex.o(.constdata) refers (Special) to usenofp.o(x$fpl$usenofp) for __I$use$fp
    _printf_wchar.o(.text) refers (Weak) to _printf_wctomb.o(.text) for _printf_wctomb
    _scanf.o(.text) refers (Weak) to _scanf_int.o(.text) for _scanf_int
    _wcrtomb.o(.text) refers to rt_ctype_table.o(.text) for __rt_ctype_table
    retnan.o(x$fpl$retnan) refers (Special) to usenofp.o(x$fpl$usenofp) for __I$use$fp
    retnan.o(x$fpl$retnan) refers to trapv.o(x$fpl$trapveneer) for __fpl_cmpreturn
    libspace.o(.text) refers to libspace.o(.bss) for __libspace_start
    sys_stackheap_outer.o(.text) refers to libspace.o(.text) for __user_perproc_libspace
    sys_stackheap_outer.o(.text) refers to startup_stm32f10x_md.o(.text) for __user_initial_stackheap
    rt_ctype_table.o(.text) refers to rt_locale_intlibspace.o(.text) for __rt_locale
    rt_ctype_table.o(.text) refers to lc_ctype_c.o(locale$$code) for _get_lc_ctype
    rt_locale.o(.text) refers to rt_locale.o(.bss) for __rt_locale_data
    rt_locale_intlibspace.o(.text) refers to libspace.o(.bss) for __libspace_start
    _printf_fp_infnan.o(.text) refers (Weak) to _printf_pad.o(.text) for _printf_pre_padding
    _printf_fp_infnan.o(.text) refers (Weak) to _printf_pad.o(.text) for _printf_post_padding
    bigflt0.o(.text) refers (Special) to usenofp.o(x$fpl$usenofp) for __I$use$fp
    bigflt0.o(.text) refers to btod.o(CL$$btod_emul) for _btod_emul
    bigflt0.o(.text) refers to btod.o(CL$$btod_ediv) for _btod_ediv
    bigflt0.o(.text) refers to bigflt0.o(.constdata) for .constdata
    bigflt0.o(.constdata) refers (Special) to usenofp.o(x$fpl$usenofp) for __I$use$fp
    btod.o(CL$$btod_d2e) refers (Special) to usenofp.o(x$fpl$usenofp) for __I$use$fp
    btod.o(CL$$btod_d2e) refers to btod.o(CL$$btod_d2e_norm_op1) for _d2e_norm_op1
    btod.o(CL$$btod_d2e_norm_op1) refers (Special) to usenofp.o(x$fpl$usenofp) for __I$use$fp
    btod.o(CL$$btod_d2e_norm_op1) refers to btod.o(CL$$btod_d2e_denorm_low) for _d2e_denorm_low
    btod.o(CL$$btod_d2e_denorm_low) refers (Special) to usenofp.o(x$fpl$usenofp) for __I$use$fp
    btod.o(CL$$btod_emul) refers (Special) to usenofp.o(x$fpl$usenofp) for __I$use$fp
    btod.o(CL$$btod_emul) refers to btod.o(CL$$btod_mult_common) for __btod_mult_common
    btod.o(CL$$btod_emul) refers to btod.o(CL$$btod_e2e) for _e2e
    btod.o(CL$$btod_ediv) refers (Special) to usenofp.o(x$fpl$usenofp) for __I$use$fp
    btod.o(CL$$btod_ediv) refers to btod.o(CL$$btod_div_common) for __btod_div_common
    btod.o(CL$$btod_ediv) refers to btod.o(CL$$btod_e2e) for _e2e
    btod.o(CL$$btod_emuld) refers (Special) to usenofp.o(x$fpl$usenofp) for __I$use$fp
    btod.o(CL$$btod_emuld) refers to btod.o(CL$$btod_mult_common) for __btod_mult_common
    btod.o(CL$$btod_emuld) refers to btod.o(CL$$btod_e2d) for _e2d
    btod.o(CL$$btod_edivd) refers (Special) to usenofp.o(x$fpl$usenofp) for __I$use$fp
    btod.o(CL$$btod_edivd) refers to btod.o(CL$$btod_div_common) for __btod_div_common
    btod.o(CL$$btod_edivd) refers to btod.o(CL$$btod_e2d) for _e2d
    btod.o(CL$$btod_e2e) refers (Special) to usenofp.o(x$fpl$usenofp) for __I$use$fp
    btod.o(CL$$btod_e2d) refers (Special) to usenofp.o(x$fpl$usenofp) for __I$use$fp
    btod.o(CL$$btod_e2d) refers to btod.o(CL$$btod_e2e) for _e2e
    btod.o(CL$$btod_mult_common) refers (Special) to usenofp.o(x$fpl$usenofp) for __I$use$fp
    btod.o(CL$$btod_div_common) refers (Special) to usenofp.o(x$fpl$usenofp) for __I$use$fp
    lc_numeric_c.o(locale$$data) refers (Special) to libinit2.o(.ARM.Collect$$libinit$$00000016) for __rt_lib_init_lc_numeric_2
    lc_numeric_c.o(locale$$code) refers (Special) to libinit2.o(.ARM.Collect$$libinit$$00000016) for __rt_lib_init_lc_numeric_2
    lc_numeric_c.o(locale$$code) refers to strcmpv7m.o(.text) for strcmp
    lc_numeric_c.o(locale$$code) refers to lc_numeric_c.o(locale$$data) for __lcnum_c_name
    exit.o(.text) refers to rtexit.o(.ARM.Collect$$rtexit$$00000000) for __rt_exit
    defsig_fpe_outer.o(.text) refers to defsig_fpe_inner.o(.text) for __rt_SIGFPE_inner
    defsig_fpe_outer.o(.text) refers to defsig_exit.o(.text) for __sig_exit
    defsig_fpe_formal.o(.text) refers to rt_raise.o(.text) for __rt_raise
    libinit.o(.ARM.Collect$$libinit$$00000000) refers (Special) to libinit2.o(.ARM.Collect$$libinit$$0000002E) for __rt_lib_init_alloca_1
    libinit.o(.ARM.Collect$$libinit$$00000000) refers (Special) to libinit2.o(.ARM.Collect$$libinit$$0000002C) for __rt_lib_init_argv_1
    libinit.o(.ARM.Collect$$libinit$$00000000) refers (Special) to libinit2.o(.ARM.Collect$$libinit$$0000001B) for __rt_lib_init_atexit_1
    libinit.o(.ARM.Collect$$libinit$$00000000) refers (Special) to libinit2.o(.ARM.Collect$$libinit$$00000021) for __rt_lib_init_clock_1
    libinit.o(.ARM.Collect$$libinit$$00000000) refers (Special) to libinit2.o(.ARM.Collect$$libinit$$00000032) for __rt_lib_init_cpp_1
    libinit.o(.ARM.Collect$$libinit$$00000000) refers (Special) to libinit2.o(.ARM.Collect$$libinit$$00000030) for __rt_lib_init_exceptions_1
    libinit.o(.ARM.Collect$$libinit$$00000000) refers (Special) to libinit2.o(.ARM.Collect$$libinit$$00000002) for __rt_lib_init_fp_1
    libinit.o(.ARM.Collect$$libinit$$00000000) refers (Special) to libinit2.o(.ARM.Collect$$libinit$$0000001F) for __rt_lib_init_fp_trap_1
    libinit.o(.ARM.Collect$$libinit$$00000000) refers (Special) to libinit2.o(.ARM.Collect$$libinit$$00000023) for __rt_lib_init_getenv_1
    libinit.o(.ARM.Collect$$libinit$$00000000) refers (Special) to libinit2.o(.ARM.Collect$$libinit$$0000000A) for __rt_lib_init_heap_1
    libinit.o(.ARM.Collect$$libinit$$00000000) refers (Special) to libinit2.o(.ARM.Collect$$libinit$$00000011) for __rt_lib_init_lc_collate_1
    libinit.o(.ARM.Collect$$libinit$$00000000) refers (Special) to libinit2.o(.ARM.Collect$$libinit$$00000013) for __rt_lib_init_lc_ctype_1
    libinit.o(.ARM.Collect$$libinit$$00000000) refers (Special) to libinit2.o(.ARM.Collect$$libinit$$00000015) for __rt_lib_init_lc_monetary_1
    libinit.o(.ARM.Collect$$libinit$$00000000) refers (Special) to libinit2.o(.ARM.Collect$$libinit$$00000017) for __rt_lib_init_lc_numeric_1
    libinit.o(.ARM.Collect$$libinit$$00000000) refers (Special) to libinit2.o(.ARM.Collect$$libinit$$00000019) for __rt_lib_init_lc_time_1
    libinit.o(.ARM.Collect$$libinit$$00000000) refers (Special) to libinit2.o(.ARM.Collect$$libinit$$00000004) for __rt_lib_init_preinit_1
    libinit.o(.ARM.Collect$$libinit$$00000000) refers (Special) to libinit2.o(.ARM.Collect$$libinit$$0000000E) for __rt_lib_init_rand_1
    libinit.o(.ARM.Collect$$libinit$$00000000) refers (Special) to libinit2.o(.ARM.Collect$$libinit$$00000033) for __rt_lib_init_return
    libinit.o(.ARM.Collect$$libinit$$00000000) refers (Special) to libinit2.o(.ARM.Collect$$libinit$$0000001D) for __rt_lib_init_signal_1
    libinit.o(.ARM.Collect$$libinit$$00000000) refers (Special) to libinit2.o(.ARM.Collect$$libinit$$00000025) for __rt_lib_init_stdio_1
    libinit.o(.ARM.Collect$$libinit$$00000000) refers (Special) to libinit2.o(.ARM.Collect$$libinit$$0000000C) for __rt_lib_init_user_alloc_1
    istatus.o(x$fpl$ieeestatus) refers (Special) to usenofp.o(x$fpl$usenofp) for __I$use$fp
    trapv.o(x$fpl$trapveneer) refers (Special) to usenofp.o(x$fpl$usenofp) for __I$use$fp
    rtexit.o(.ARM.Collect$$rtexit$$00000000) refers (Special) to rtexit2.o(.ARM.Collect$$rtexit$$00000004) for __rt_exit_exit
    rtexit.o(.ARM.Collect$$rtexit$$00000000) refers (Special) to rtexit2.o(.ARM.Collect$$rtexit$$00000003) for __rt_exit_ls
    rtexit.o(.ARM.Collect$$rtexit$$00000000) refers (Special) to rtexit2.o(.ARM.Collect$$rtexit$$00000002) for __rt_exit_prels_1
    rtexit.o(.ARM.exidx) refers (Special) to rtexit2.o(.ARM.Collect$$rtexit$$00000004) for __rt_exit_exit
    rtexit.o(.ARM.exidx) refers (Special) to rtexit2.o(.ARM.Collect$$rtexit$$00000003) for __rt_exit_ls
    rtexit.o(.ARM.exidx) refers (Special) to rtexit2.o(.ARM.Collect$$rtexit$$00000002) for __rt_exit_prels_1
    rtexit.o(.ARM.exidx) refers to rtexit.o(.ARM.Collect$$rtexit$$00000000) for .ARM.Collect$$rtexit$$00000000
    rt_raise.o(.text) refers to __raise.o(.text) for __raise
    rt_raise.o(.text) refers to usart1.o(.text) for _sys_exit
    lc_ctype_c.o(locale$$data) refers (Special) to libinit2.o(.ARM.Collect$$libinit$$00000012) for __rt_lib_init_lc_ctype_2
    lc_ctype_c.o(locale$$code) refers (Special) to libinit2.o(.ARM.Collect$$libinit$$00000012) for __rt_lib_init_lc_ctype_2
    lc_ctype_c.o(locale$$code) refers to strcmpv7m.o(.text) for strcmp
    lc_ctype_c.o(locale$$code) refers to lc_ctype_c.o(locale$$data) for __lcctype_c_name
    defsig_exit.o(.text) refers to usart1.o(.text) for _sys_exit
    defsig_fpe_inner.o(.text) refers to defsig_general.o(.text) for __default_signal_display
    libinit2.o(.ARM.Collect$$libinit$$0000000F) refers (Weak) to rt_locale_intlibspace.o(.text) for __rt_locale
    libinit2.o(.ARM.Collect$$libinit$$00000010) refers to libinit2.o(.ARM.Collect$$libinit$$0000000F) for .ARM.Collect$$libinit$$0000000F
    libinit2.o(.ARM.Collect$$libinit$$00000012) refers to libinit2.o(.ARM.Collect$$libinit$$0000000F) for .ARM.Collect$$libinit$$0000000F
    libinit2.o(.ARM.Collect$$libinit$$00000012) refers (Weak) to lc_ctype_c.o(locale$$code) for _get_lc_ctype
    libinit2.o(.ARM.Collect$$libinit$$00000014) refers to libinit2.o(.ARM.Collect$$libinit$$0000000F) for .ARM.Collect$$libinit$$0000000F
    libinit2.o(.ARM.Collect$$libinit$$00000016) refers to libinit2.o(.ARM.Collect$$libinit$$0000000F) for .ARM.Collect$$libinit$$0000000F
    libinit2.o(.ARM.Collect$$libinit$$00000016) refers (Weak) to lc_numeric_c.o(locale$$code) for _get_lc_numeric
    libinit2.o(.ARM.Collect$$libinit$$00000018) refers to libinit2.o(.ARM.Collect$$libinit$$0000000F) for .ARM.Collect$$libinit$$0000000F
    libinit2.o(.ARM.Collect$$libinit$$00000026) refers to argv_veneer.o(.emb_text) for __ARM_argv_veneer
    libinit2.o(.ARM.Collect$$libinit$$00000027) refers to argv_veneer.o(.emb_text) for __ARM_argv_veneer
    rtexit2.o(.ARM.Collect$$rtexit$$00000003) refers to libshutdown.o(.ARM.Collect$$libshutdown$$00000000) for __rt_lib_shutdown
    rtexit2.o(.ARM.Collect$$rtexit$$00000004) refers to usart1.o(.text) for _sys_exit
    rtexit2.o(.ARM.exidx) refers to rtexit2.o(.ARM.Collect$$rtexit$$00000001) for .ARM.Collect$$rtexit$$00000001
    rtexit2.o(.ARM.exidx) refers to rtexit2.o(.ARM.Collect$$rtexit$$00000003) for .ARM.Collect$$rtexit$$00000003
    rtexit2.o(.ARM.exidx) refers to rtexit2.o(.ARM.Collect$$rtexit$$00000004) for .ARM.Collect$$rtexit$$00000004
    __raise.o(.text) refers to defsig.o(CL$$defsig) for __default_signal_handler
    defsig_general.o(.text) refers to sys_wrch.o(.text) for _ttywrch
    argv_veneer.o(.emb_text) refers to no_argv.o(.text) for __ARM_get_argv
    sys_wrch.o(.text) refers (Special) to use_no_semi.o(.text) for __I$use$semihosting
    sys_wrch.o(.text) refers (Special) to indicate_semi.o(.text) for __semihosting_library_function
    defsig.o(CL$$defsig) refers to defsig_fpe_inner.o(.text) for __rt_SIGFPE_inner
    defsig.o(CL$$defsig) refers to defsig_rtmem_inner.o(.text) for __rt_SIGRTMEM_inner
    _get_argv_nomalloc.o(.text) refers (Special) to hrguard.o(.text) for __heap_region$guard
    _get_argv_nomalloc.o(.text) refers to defsig_rtmem_outer.o(.text) for __rt_SIGRTMEM
    _get_argv_nomalloc.o(.text) refers to sys_command.o(.text) for _sys_command_string
    libshutdown.o(.ARM.Collect$$libshutdown$$00000000) refers (Special) to libshutdown2.o(.ARM.Collect$$libshutdown$$00000002) for __rt_lib_shutdown_cpp_1
    libshutdown.o(.ARM.Collect$$libshutdown$$00000000) refers (Special) to libshutdown2.o(.ARM.Collect$$libshutdown$$00000007) for __rt_lib_shutdown_fp_trap_1
    libshutdown.o(.ARM.Collect$$libshutdown$$00000000) refers (Special) to libshutdown2.o(.ARM.Collect$$libshutdown$$0000000F) for __rt_lib_shutdown_heap_1
    libshutdown.o(.ARM.Collect$$libshutdown$$00000000) refers (Special) to libshutdown2.o(.ARM.Collect$$libshutdown$$00000010) for __rt_lib_shutdown_return
    libshutdown.o(.ARM.Collect$$libshutdown$$00000000) refers (Special) to libshutdown2.o(.ARM.Collect$$libshutdown$$0000000A) for __rt_lib_shutdown_signal_1
    libshutdown.o(.ARM.Collect$$libshutdown$$00000000) refers (Special) to libshutdown2.o(.ARM.Collect$$libshutdown$$00000004) for __rt_lib_shutdown_stdio_1
    libshutdown.o(.ARM.Collect$$libshutdown$$00000000) refers (Special) to libshutdown2.o(.ARM.Collect$$libshutdown$$0000000C) for __rt_lib_shutdown_user_alloc_1
    sys_command.o(.text) refers (Special) to use_no_semi.o(.text) for __I$use$semihosting
    sys_command.o(.text) refers (Special) to indicate_semi.o(.text) for __semihosting_library_function
    defsig_abrt_inner.o(.text) refers to defsig_general.o(.text) for __default_signal_display
    defsig_rtred_inner.o(.text) refers to defsig_general.o(.text) for __default_signal_display
    defsig_rtmem_inner.o(.text) refers to defsig_general.o(.text) for __default_signal_display
    defsig_rtmem_outer.o(.text) refers to defsig_rtmem_inner.o(.text) for __rt_SIGRTMEM_inner
    defsig_rtmem_outer.o(.text) refers to defsig_exit.o(.text) for __sig_exit
    defsig_rtmem_formal.o(.text) refers to rt_raise.o(.text) for __rt_raise
    defsig_stak_inner.o(.text) refers to defsig_general.o(.text) for __default_signal_display
    defsig_pvfn_inner.o(.text) refers to defsig_general.o(.text) for __default_signal_display
    defsig_cppl_inner.o(.text) refers to defsig_general.o(.text) for __default_signal_display
    defsig_segv_inner.o(.text) refers to defsig_general.o(.text) for __default_signal_display
    defsig_other.o(.text) refers to defsig_general.o(.text) for __default_signal_display


==============================================================================

Removing Unused input sections from the image.

    Removing sys.o(.emb_text), (6 bytes).
    Removing sys.o(.text), (12 bytes).
    Removing utils.o(.constdata), (8 bytes).
    Removing utils.o(.constdata), (8 bytes).
    Removing core_cm3.o(.emb_text), (32 bytes).
    Removing stm32f10x_flash.o(.text), (1152 bytes).
    Removing stm32f10x_tim.o(.text), (2800 bytes).
    Removing cpu_core.o(.constdata), (4 bytes).
    Removing cpu_c.o(.text), (916 bytes).
    Removing lib_math.o(.text), (80 bytes).
    Removing lib_math.o(.data), (4 bytes).
    Removing os_dbg.o(.constdata), (356 bytes).
    Removing os_dbg.o(.constdata), (2 bytes).
    Removing os_app_hooks.o(.text), (160 bytes).

14 unused section(s) (total 5540 bytes) removed from the image.

==============================================================================

Image Symbol Table

    Local Symbols

    Symbol Name                              Value     Ov Type        Size  Object(Section)

    ../clib/angel/boardlib.s                 0x00000000   Number         0  boardinit3.o ABSOLUTE
    ../clib/angel/boardlib.s                 0x00000000   Number         0  boardinit2.o ABSOLUTE
    ../clib/angel/boardlib.s                 0x00000000   Number         0  boardshut.o ABSOLUTE
    ../clib/angel/boardlib.s                 0x00000000   Number         0  boardinit1.o ABSOLUTE
    ../clib/angel/dczerorl2.s                0x00000000   Number         0  __dczerorl2.o ABSOLUTE
    ../clib/angel/handlers.s                 0x00000000   Number         0  __scatter_zi.o ABSOLUTE
    ../clib/angel/kernel.s                   0x00000000   Number         0  __rtentry4.o ABSOLUTE
    ../clib/angel/kernel.s                   0x00000000   Number         0  __rtentry2.o ABSOLUTE
    ../clib/angel/kernel.s                   0x00000000   Number         0  rtexit2.o ABSOLUTE
    ../clib/angel/kernel.s                   0x00000000   Number         0  __rtentry.o ABSOLUTE
    ../clib/angel/kernel.s                   0x00000000   Number         0  rtexit.o ABSOLUTE
    ../clib/angel/rt.s                       0x00000000   Number         0  rt_errno_addr_intlibspace.o ABSOLUTE
    ../clib/angel/rt.s                       0x00000000   Number         0  rt_errno_addr.o ABSOLUTE
    ../clib/angel/rt.s                       0x00000000   Number         0  rt_div0.o ABSOLUTE
    ../clib/angel/rt.s                       0x00000000   Number         0  rt_locale_intlibspace.o ABSOLUTE
    ../clib/angel/rt.s                       0x00000000   Number         0  aeabi_ldiv0.o ABSOLUTE
    ../clib/angel/rt.s                       0x00000000   Number         0  rt_ctype_table.o ABSOLUTE
    ../clib/angel/rt.s                       0x00000000   Number         0  rt_locale.o ABSOLUTE
    ../clib/angel/rt.s                       0x00000000   Number         0  rt_raise.o ABSOLUTE
    ../clib/angel/rt.s                       0x00000000   Number         0  aeabi_ldiv0_sigfpe.o ABSOLUTE
    ../clib/angel/scatter.s                  0x00000000   Number         0  __scatter.o ABSOLUTE
    ../clib/angel/startup.s                  0x00000000   Number         0  __main.o ABSOLUTE
    ../clib/angel/sys.s                      0x00000000   Number         0  sys_stackheap_outer.o ABSOLUTE
    ../clib/angel/sys.s                      0x00000000   Number         0  indicate_semi.o ABSOLUTE
    ../clib/angel/sys.s                      0x00000000   Number         0  use_no_semi.o ABSOLUTE
    ../clib/angel/sys.s                      0x00000000   Number         0  libspace.o ABSOLUTE
    ../clib/angel/sys.s                      0x00000000   Number         0  use_no_semi_2.o ABSOLUTE
    ../clib/angel/sysapp.c                   0x00000000   Number         0  sys_wrch.o ABSOLUTE
    ../clib/angel/sysapp.c                   0x00000000   Number         0  sys_command.o ABSOLUTE
    ../clib/armsys.c                         0x00000000   Number         0  _get_argv_nomalloc.o ABSOLUTE
    ../clib/armsys.c                         0x00000000   Number         0  no_argv.o ABSOLUTE
    ../clib/armsys.c                         0x00000000   Number         0  argv_veneer.o ABSOLUTE
    ../clib/armsys.c                         0x00000000   Number         0  argv_veneer.o ABSOLUTE
    ../clib/bigflt.c                         0x00000000   Number         0  bigflt0.o ABSOLUTE
    ../clib/btod.s                           0x00000000   Number         0  btod.o ABSOLUTE
    ../clib/ctype.c                          0x00000000   Number         0  isspace.o ABSOLUTE
    ../clib/fenv.c                           0x00000000   Number         0  _rserrno.o ABSOLUTE
    ../clib/heapalloc.c                      0x00000000   Number         0  hrguard.o ABSOLUTE
    ../clib/heapaux.c                        0x00000000   Number         0  heapauxi.o ABSOLUTE
    ../clib/libinit.s                        0x00000000   Number         0  libinit.o ABSOLUTE
    ../clib/libinit.s                        0x00000000   Number         0  libshutdown2.o ABSOLUTE
    ../clib/libinit.s                        0x00000000   Number         0  libshutdown.o ABSOLUTE
    ../clib/libinit.s                        0x00000000   Number         0  libinit2.o ABSOLUTE
    ../clib/locale.c                         0x00000000   Number         0  _wcrtomb.o ABSOLUTE
    ../clib/locale.s                         0x00000000   Number         0  lc_numeric_c.o ABSOLUTE
    ../clib/locale.s                         0x00000000   Number         0  lc_ctype_c.o ABSOLUTE
    ../clib/longlong.s                       0x00000000   Number         0  lludivv7m.o ABSOLUTE
    ../clib/longlong.s                       0x00000000   Number         0  lludiv10.o ABSOLUTE
    ../clib/memcpset.s                       0x00000000   Number         0  rt_memcpy_v6.o ABSOLUTE
    ../clib/memcpset.s                       0x00000000   Number         0  rt_memcpy_w.o ABSOLUTE
    ../clib/memcpset.s                       0x00000000   Number         0  rt_memclr.o ABSOLUTE
    ../clib/memcpset.s                       0x00000000   Number         0  rt_memclr_w.o ABSOLUTE
    ../clib/memcpset.s                       0x00000000   Number         0  strcmpv7m.o ABSOLUTE
    ../clib/misc.s                           0x00000000   Number         0  printf_stubs.o ABSOLUTE
    ../clib/printf.c                         0x00000000   Number         0  __printf_ss_wp.o ABSOLUTE
    ../clib/printf.c                         0x00000000   Number         0  _printf_oct_ll.o ABSOLUTE
    ../clib/printf.c                         0x00000000   Number         0  _printf_oct_int.o ABSOLUTE
    ../clib/printf.c                         0x00000000   Number         0  _printf_hex_ll_ptr.o ABSOLUTE
    ../clib/printf.c                         0x00000000   Number         0  _printf_fp_infnan.o ABSOLUTE
    ../clib/printf.c                         0x00000000   Number         0  _printf_hex_int_ll_ptr.o ABSOLUTE
    ../clib/printf.c                         0x00000000   Number         0  __2printf.o ABSOLUTE
    ../clib/printf.c                         0x00000000   Number         0  __printf_flags_ss_wp.o ABSOLUTE
    ../clib/printf.c                         0x00000000   Number         0  _printf_charcount.o ABSOLUTE
    ../clib/printf.c                         0x00000000   Number         0  _printf_oct_int_ll.o ABSOLUTE
    ../clib/printf.c                         0x00000000   Number         0  _printf_intcommon.o ABSOLUTE
    ../clib/printf.c                         0x00000000   Number         0  __printf.o ABSOLUTE
    ../clib/printf.c                         0x00000000   Number         0  _printf_truncate.o ABSOLUTE
    ../clib/printf.c                         0x00000000   Number         0  noretval__2sprintf.o ABSOLUTE
    ../clib/printf.c                         0x00000000   Number         0  __printf_flags.o ABSOLUTE
    ../clib/printf.c                         0x00000000   Number         0  _printf_str.o ABSOLUTE
    ../clib/printf.c                         0x00000000   Number         0  __printf_ss.o ABSOLUTE
    ../clib/printf.c                         0x00000000   Number         0  noretval__2printf.o ABSOLUTE
    ../clib/printf.c                         0x00000000   Number         0  __2sprintf.o ABSOLUTE
    ../clib/printf.c                         0x00000000   Number         0  vsprintf.o ABSOLUTE
    ../clib/printf.c                         0x00000000   Number         0  __printf_flags_ss.o ABSOLUTE
    ../clib/printf.c                         0x00000000   Number         0  _printf_char_common.o ABSOLUTE
    ../clib/printf.c                         0x00000000   Number         0  _sputc.o ABSOLUTE
    ../clib/printf.c                         0x00000000   Number         0  _printf_pad.o ABSOLUTE
    ../clib/printf.c                         0x00000000   Number         0  _printf_dec.o ABSOLUTE
    ../clib/printf.c                         0x00000000   Number         0  __printf_wp.o ABSOLUTE
    ../clib/printf.c                         0x00000000   Number         0  _printf_hex_ll.o ABSOLUTE
    ../clib/printf.c                         0x00000000   Number         0  _printf_char.o ABSOLUTE
    ../clib/printf.c                         0x00000000   Number         0  _printf_hex_int.o ABSOLUTE
    ../clib/printf.c                         0x00000000   Number         0  _printf_hex_int_ll.o ABSOLUTE
    ../clib/printf.c                         0x00000000   Number         0  __printf_flags_wp.o ABSOLUTE
    ../clib/printf.c                         0x00000000   Number         0  _printf_char_file.o ABSOLUTE
    ../clib/printf.c                         0x00000000   Number         0  _printf_fp_dec.o ABSOLUTE
    ../clib/printf.c                         0x00000000   Number         0  _printf_fp_hex.o ABSOLUTE
    ../clib/printf.c                         0x00000000   Number         0  __printf_nopercent.o ABSOLUTE
    ../clib/printf.c                         0x00000000   Number         0  _printf_wchar.o ABSOLUTE
    ../clib/printf.c                         0x00000000   Number         0  _printf_wctomb.o ABSOLUTE
    ../clib/printf.c                         0x00000000   Number         0  _printf_hex_ptr.o ABSOLUTE
    ../clib/printf.c                         0x00000000   Number         0  _printf_longlong_dec.o ABSOLUTE
    ../clib/printf.c                         0x00000000   Number         0  _printf_hex_int_ptr.o ABSOLUTE
    ../clib/printf_percent.s                 0x00000000   Number         0  _printf_llu.o ABSOLUTE
    ../clib/printf_percent.s                 0x00000000   Number         0  _printf_lld.o ABSOLUTE
    ../clib/printf_percent.s                 0x00000000   Number         0  _printf_lli.o ABSOLUTE
    ../clib/printf_percent.s                 0x00000000   Number         0  _printf_s.o ABSOLUTE
    ../clib/printf_percent.s                 0x00000000   Number         0  _printf_percent_end.o ABSOLUTE
    ../clib/printf_percent.s                 0x00000000   Number         0  _printf_x.o ABSOLUTE
    ../clib/printf_percent.s                 0x00000000   Number         0  _printf_a.o ABSOLUTE
    ../clib/printf_percent.s                 0x00000000   Number         0  _printf_g.o ABSOLUTE
    ../clib/printf_percent.s                 0x00000000   Number         0  _printf_d.o ABSOLUTE
    ../clib/printf_percent.s                 0x00000000   Number         0  _printf_f.o ABSOLUTE
    ../clib/printf_percent.s                 0x00000000   Number         0  _printf_llx.o ABSOLUTE
    ../clib/printf_percent.s                 0x00000000   Number         0  _printf_l.o ABSOLUTE
    ../clib/printf_percent.s                 0x00000000   Number         0  _printf_p.o ABSOLUTE
    ../clib/printf_percent.s                 0x00000000   Number         0  _printf_u.o ABSOLUTE
    ../clib/printf_percent.s                 0x00000000   Number         0  _printf_o.o ABSOLUTE
    ../clib/printf_percent.s                 0x00000000   Number         0  _printf_llo.o ABSOLUTE
    ../clib/printf_percent.s                 0x00000000   Number         0  _printf_c.o ABSOLUTE
    ../clib/printf_percent.s                 0x00000000   Number         0  _printf_n.o ABSOLUTE
    ../clib/printf_percent.s                 0x00000000   Number         0  _printf_ls.o ABSOLUTE
    ../clib/printf_percent.s                 0x00000000   Number         0  _printf_ll.o ABSOLUTE
    ../clib/printf_percent.s                 0x00000000   Number         0  _printf_e.o ABSOLUTE
    ../clib/printf_percent.s                 0x00000000   Number         0  _printf_percent.o ABSOLUTE
    ../clib/printf_percent.s                 0x00000000   Number         0  _printf_lc.o ABSOLUTE
    ../clib/printf_percent.s                 0x00000000   Number         0  _printf_i.o ABSOLUTE
    ../clib/scanf.c                          0x00000000   Number         0  _sgetc.o ABSOLUTE
    ../clib/scanf.c                          0x00000000   Number         0  scanf_char.o ABSOLUTE
    ../clib/scanf.c                          0x00000000   Number         0  _chval.o ABSOLUTE
    ../clib/scanf.c                          0x00000000   Number         0  _scanf.o ABSOLUTE
    ../clib/scanf.c                          0x00000000   Number         0  _scanf_int.o ABSOLUTE
    ../clib/scanf.c                          0x00000000   Number         0  __0sscanf.o ABSOLUTE
    ../clib/signal.c                         0x00000000   Number         0  defsig_segv_inner.o ABSOLUTE
    ../clib/signal.c                         0x00000000   Number         0  defsig_cppl_inner.o ABSOLUTE
    ../clib/signal.c                         0x00000000   Number         0  defsig_pvfn_inner.o ABSOLUTE
    ../clib/signal.c                         0x00000000   Number         0  defsig_stak_inner.o ABSOLUTE
    ../clib/signal.c                         0x00000000   Number         0  defsig_rtmem_formal.o ABSOLUTE
    ../clib/signal.c                         0x00000000   Number         0  defsig_rtmem_outer.o ABSOLUTE
    ../clib/signal.c                         0x00000000   Number         0  defsig_rtmem_inner.o ABSOLUTE
    ../clib/signal.c                         0x00000000   Number         0  defsig_rtred_inner.o ABSOLUTE
    ../clib/signal.c                         0x00000000   Number         0  defsig_abrt_inner.o ABSOLUTE
    ../clib/signal.c                         0x00000000   Number         0  defsig_general.o ABSOLUTE
    ../clib/signal.c                         0x00000000   Number         0  __raise.o ABSOLUTE
    ../clib/signal.c                         0x00000000   Number         0  defsig_fpe_inner.o ABSOLUTE
    ../clib/signal.c                         0x00000000   Number         0  defsig_exit.o ABSOLUTE
    ../clib/signal.c                         0x00000000   Number         0  defsig_fpe_formal.o ABSOLUTE
    ../clib/signal.c                         0x00000000   Number         0  defsig_fpe_outer.o ABSOLUTE
    ../clib/signal.c                         0x00000000   Number         0  defsig_other.o ABSOLUTE
    ../clib/signal.s                         0x00000000   Number         0  defsig.o ABSOLUTE
    ../clib/stdio.c                          0x00000000   Number         0  ferror.o ABSOLUTE
    ../clib/stdio.c                          0x00000000   Number         0  ferror_locked.o ABSOLUTE
    ../clib/stdlib.c                         0x00000000   Number         0  exit.o ABSOLUTE
    ../clib/string.c                         0x00000000   Number         0  strtok_int.o ABSOLUTE
    ../clib/string.c                         0x00000000   Number         0  strcat.o ABSOLUTE
    ../clib/string.c                         0x00000000   Number         0  strcpy.o ABSOLUTE
    ../clib/string.c                         0x00000000   Number         0  strstr.o ABSOLUTE
    ../clib/string.c                         0x00000000   Number         0  strtok.o ABSOLUTE
    ../clib/string.c                         0x00000000   Number         0  strspn.o ABSOLUTE
    ../clib/string.c                         0x00000000   Number         0  strcspn.o ABSOLUTE
    ../fplib/d2f.s                           0x00000000   Number         0  d2f.o ABSOLUTE
    ../fplib/daddsub.s                       0x00000000   Number         0  daddsub_clz.o ABSOLUTE
    ../fplib/dcheck1.s                       0x00000000   Number         0  dcheck1.o ABSOLUTE
    ../fplib/dcmpi.s                         0x00000000   Number         0  dcmpi.o ABSOLUTE
    ../fplib/ddiv.s                          0x00000000   Number         0  ddiv.o ABSOLUTE
    ../fplib/dfix.s                          0x00000000   Number         0  dfix.o ABSOLUTE
    ../fplib/dfixu.s                         0x00000000   Number         0  dfixu.o ABSOLUTE
    ../fplib/dflt.s                          0x00000000   Number         0  dflt_clz.o ABSOLUTE
    ../fplib/dleqf.s                         0x00000000   Number         0  dleqf.o ABSOLUTE
    ../fplib/dmul.s                          0x00000000   Number         0  dmul.o ABSOLUTE
    ../fplib/dnaninf.s                       0x00000000   Number         0  dnaninf.o ABSOLUTE
    ../fplib/dretinf.s                       0x00000000   Number         0  dretinf.o ABSOLUTE
    ../fplib/drleqf.s                        0x00000000   Number         0  drleqf.o ABSOLUTE
    ../fplib/dsqrt.s                         0x00000000   Number         0  dsqrt_noumaal.o ABSOLUTE
    ../fplib/f2d.s                           0x00000000   Number         0  f2d.o ABSOLUTE
    ../fplib/faddsub.s                       0x00000000   Number         0  faddsub_clz.o ABSOLUTE
    ../fplib/fdiv.s                          0x00000000   Number         0  fdiv.o ABSOLUTE
    ../fplib/ffix.s                          0x00000000   Number         0  ffix.o ABSOLUTE
    ../fplib/fflt.s                          0x00000000   Number         0  fflt_clz.o ABSOLUTE
    ../fplib/fnaninf.s                       0x00000000   Number         0  fnaninf.o ABSOLUTE
    ../fplib/fpinit.s                        0x00000000   Number         0  fpinit.o ABSOLUTE
    ../fplib/fretinf.s                       0x00000000   Number         0  fretinf.o ABSOLUTE
    ../fplib/istatus.s                       0x00000000   Number         0  istatus.o ABSOLUTE
    ../fplib/printf1.s                       0x00000000   Number         0  printf1.o ABSOLUTE
    ../fplib/printf2.s                       0x00000000   Number         0  printf2.o ABSOLUTE
    ../fplib/printf2a.s                      0x00000000   Number         0  printf2a.o ABSOLUTE
    ../fplib/printf2b.s                      0x00000000   Number         0  printf2b.o ABSOLUTE
    ../fplib/retnan.s                        0x00000000   Number         0  retnan.o ABSOLUTE
    ../fplib/scalbn.s                        0x00000000   Number         0  scalbn.o ABSOLUTE
    ../fplib/trapv.s                         0x00000000   Number         0  trapv.o ABSOLUTE
    ../fplib/usenofp.s                       0x00000000   Number         0  usenofp.o ABSOLUTE
    ../mathlib/asin.c                        0x00000000   Number         0  asin.o ABSOLUTE
    ../mathlib/asin.c                        0x00000000   Number         0  asin_x.o ABSOLUTE
    ../mathlib/atan.c                        0x00000000   Number         0  atan_x.o ABSOLUTE
    ../mathlib/atan.c                        0x00000000   Number         0  atan.o ABSOLUTE
    ../mathlib/atan2.c                       0x00000000   Number         0  atan2_x.o ABSOLUTE
    ../mathlib/atan2.c                       0x00000000   Number         0  atan2.o ABSOLUTE
    ../mathlib/cos.c                         0x00000000   Number         0  cos_x.o ABSOLUTE
    ../mathlib/cos.c                         0x00000000   Number         0  cos.o ABSOLUTE
    ../mathlib/cos_i.c                       0x00000000   Number         0  cos_i.o ABSOLUTE
    ../mathlib/dunder.c                      0x00000000   Number         0  dunder.o ABSOLUTE
    ../mathlib/fpclassify.c                  0x00000000   Number         0  fpclassify.o ABSOLUTE
    ../mathlib/poly.c                        0x00000000   Number         0  poly.o ABSOLUTE
    ../mathlib/pow.c                         0x00000000   Number         0  pow.o ABSOLUTE
    ../mathlib/pow.c                         0x00000000   Number         0  pow_x.o ABSOLUTE
    ../mathlib/qnan.c                        0x00000000   Number         0  qnan.o ABSOLUTE
    ../mathlib/rred.c                        0x00000000   Number         0  rred.o ABSOLUTE
    ../mathlib/sin.c                         0x00000000   Number         0  sin_x.o ABSOLUTE
    ../mathlib/sin.c                         0x00000000   Number         0  sin.o ABSOLUTE
    ../mathlib/sin_i.c                       0x00000000   Number         0  sin_i_x.o ABSOLUTE
    ../mathlib/sin_i.c                       0x00000000   Number         0  sin_i.o ABSOLUTE
    ../mathlib/sqrt.c                        0x00000000   Number         0  sqrt_x.o ABSOLUTE
    ../mathlib/sqrt.c                        0x00000000   Number         0  sqrt.o ABSOLUTE
    ..\CORE\core_cm3.c                       0x00000000   Number         0  core_cm3.o ABSOLUTE
    ..\CORE\startup_stm32f10x_md.s           0x00000000   Number         0  startup_stm32f10x_md.o ABSOLUTE
    ..\FWLIB\STM32F10x_FWLib\src\misc.c      0x00000000   Number         0  misc.o ABSOLUTE
    ..\FWLIB\STM32F10x_FWLib\src\stm32f10x_flash.c 0x00000000   Number         0  stm32f10x_flash.o ABSOLUTE
    ..\FWLIB\STM32F10x_FWLib\src\stm32f10x_gpio.c 0x00000000   Number         0  stm32f10x_gpio.o ABSOLUTE
    ..\FWLIB\STM32F10x_FWLib\src\stm32f10x_iwdg.c 0x00000000   Number         0  stm32f10x_iwdg.o ABSOLUTE
    ..\FWLIB\STM32F10x_FWLib\src\stm32f10x_rcc.c 0x00000000   Number         0  stm32f10x_rcc.o ABSOLUTE
    ..\FWLIB\STM32F10x_FWLib\src\stm32f10x_tim.c 0x00000000   Number         0  stm32f10x_tim.o ABSOLUTE
    ..\FWLIB\STM32F10x_FWLib\src\stm32f10x_usart.c 0x00000000   Number         0  stm32f10x_usart.o ABSOLUTE
    ..\HARDWARE\ESP8266\esp8266.c            0x00000000   Number         0  esp8266.o ABSOLUTE
    ..\HARDWARE\GPS\gps.c                    0x00000000   Number         0  gps.o ABSOLUTE
    ..\HARDWARE\HMC5883L\hmc5883l.c          0x00000000   Number         0  hmc5883l.o ABSOLUTE
    ..\HARDWARE\LED\led.c                    0x00000000   Number         0  led.o ABSOLUTE
    ..\HARDWARE\OLED\oled.c                  0x00000000   Number         0  oled.o ABSOLUTE
    ..\SYSTEM\delay\delay.c                  0x00000000   Number         0  delay.o ABSOLUTE
    ..\SYSTEM\iic\iic.c                      0x00000000   Number         0  iic.o ABSOLUTE
    ..\SYSTEM\iwdg\iwdg.c                    0x00000000   Number         0  iwdg.o ABSOLUTE
    ..\SYSTEM\sys\sys.c                      0x00000000   Number         0  sys.o ABSOLUTE
    ..\SYSTEM\usart\usart1.c                 0x00000000   Number         0  usart1.o ABSOLUTE
    ..\SYSTEM\usart\usart2.c                 0x00000000   Number         0  usart2.o ABSOLUTE
    ..\SYSTEM\usart\usart3.c                 0x00000000   Number         0  usart3.o ABSOLUTE
    ..\SYSTEM\utils\utils.c                  0x00000000   Number         0  utils.o ABSOLUTE
    ..\UCOSIII\UCOS_BSP\bsp.c                0x00000000   Number         0  bsp.o ABSOLUTE
    ..\UCOSIII\uC-CPU\ARM-Cortex-M3\RealView\cpu_a.asm 0x00000000   Number         0  cpu_a.o ABSOLUTE
    ..\UCOSIII\uC-CPU\ARM-Cortex-M3\RealView\cpu_c.c 0x00000000   Number         0  cpu_c.o ABSOLUTE
    ..\UCOSIII\uC-CPU\cpu_core.c             0x00000000   Number         0  cpu_core.o ABSOLUTE
    ..\UCOSIII\uC-LIB\Ports\ARM-Cortex-M3\RealView\lib_mem_a.asm 0x00000000   Number         0  lib_mem_a.o ABSOLUTE
    ..\UCOSIII\uC-LIB\lib_ascii.c            0x00000000   Number         0  lib_ascii.o ABSOLUTE
    ..\UCOSIII\uC-LIB\lib_math.c             0x00000000   Number         0  lib_math.o ABSOLUTE
    ..\UCOSIII\uC-LIB\lib_mem.c              0x00000000   Number         0  lib_mem.o ABSOLUTE
    ..\UCOSIII\uC-LIB\lib_str.c              0x00000000   Number         0  lib_str.o ABSOLUTE
    ..\UCOSIII\uCOS-III\Ports\ARM-Cortex-M3\Generic\RealView\os_cpu_a.s 0x00000000   Number         0  os_cpu_a.o ABSOLUTE
    ..\UCOSIII\uCOS-III\Ports\ARM-Cortex-M3\Generic\RealView\os_cpu_c.c 0x00000000   Number         0  os_cpu_c.o ABSOLUTE
    ..\UCOSIII\uCOS-III\Source\os_cfg_app.c  0x00000000   Number         0  os_cfg_app.o ABSOLUTE
    ..\UCOSIII\uCOS-III\Source\os_core.c     0x00000000   Number         0  os_core.o ABSOLUTE
    ..\UCOSIII\uCOS-III\Source\os_dbg.c      0x00000000   Number         0  os_dbg.o ABSOLUTE
    ..\UCOSIII\uCOS-III\Source\os_flag.c     0x00000000   Number         0  os_flag.o ABSOLUTE
    ..\UCOSIII\uCOS-III\Source\os_int.c      0x00000000   Number         0  os_int.o ABSOLUTE
    ..\UCOSIII\uCOS-III\Source\os_mem.c      0x00000000   Number         0  os_mem.o ABSOLUTE
    ..\UCOSIII\uCOS-III\Source\os_msg.c      0x00000000   Number         0  os_msg.o ABSOLUTE
    ..\UCOSIII\uCOS-III\Source\os_mutex.c    0x00000000   Number         0  os_mutex.o ABSOLUTE
    ..\UCOSIII\uCOS-III\Source\os_pend_multi.c 0x00000000   Number         0  os_pend_multi.o ABSOLUTE
    ..\UCOSIII\uCOS-III\Source\os_prio.c     0x00000000   Number         0  os_prio.o ABSOLUTE
    ..\UCOSIII\uCOS-III\Source\os_q.c        0x00000000   Number         0  os_q.o ABSOLUTE
    ..\UCOSIII\uCOS-III\Source\os_sem.c      0x00000000   Number         0  os_sem.o ABSOLUTE
    ..\UCOSIII\uCOS-III\Source\os_stat.c     0x00000000   Number         0  os_stat.o ABSOLUTE
    ..\UCOSIII\uCOS-III\Source\os_task.c     0x00000000   Number         0  os_task.o ABSOLUTE
    ..\UCOSIII\uCOS-III\Source\os_tick.c     0x00000000   Number         0  os_tick.o ABSOLUTE
    ..\UCOSIII\uCOS-III\Source\os_time.c     0x00000000   Number         0  os_time.o ABSOLUTE
    ..\UCOSIII\uCOS-III\Source\os_tmr.c      0x00000000   Number         0  os_tmr.o ABSOLUTE
    ..\UCOSIII\uCOS-III\Source\os_var.c      0x00000000   Number         0  os_var.o ABSOLUTE
    ..\UCOSIII\uCOS_CONFIG\os_app_hooks.c    0x00000000   Number         0  os_app_hooks.o ABSOLUTE
    ..\\CORE\\core_cm3.c                     0x00000000   Number         0  core_cm3.o ABSOLUTE
    ..\\SYSTEM\\sys\\sys.c                   0x00000000   Number         0  sys.o ABSOLUTE
    dc.s                                     0x00000000   Number         0  dc.o ABSOLUTE
    main.c                                   0x00000000   Number         0  main.o ABSOLUTE
    stm32f10x_it.c                           0x00000000   Number         0  stm32f10x_it.o ABSOLUTE
    system_stm32f10x.c                       0x00000000   Number         0  system_stm32f10x.o ABSOLUTE
    RESET                                    0x08000000   Section      236  startup_stm32f10x_md.o(RESET)
    !!!main                                  0x080000ec   Section        8  __main.o(!!!main)
    !!!scatter                               0x080000f4   Section       52  __scatter.o(!!!scatter)
    !!dczerorl2                              0x08000128   Section       90  __dczerorl2.o(!!dczerorl2)
    !!handler_zi                             0x08000184   Section       28  __scatter_zi.o(!!handler_zi)
    .ARM.Collect$$_printf_percent$$00000000  0x080001a0   Section        0  _printf_percent.o(.ARM.Collect$$_printf_percent$$00000000)
    .ARM.Collect$$_printf_percent$$00000001  0x080001a0   Section        6  _printf_n.o(.ARM.Collect$$_printf_percent$$00000001)
    .ARM.Collect$$_printf_percent$$00000002  0x080001a6   Section        6  _printf_p.o(.ARM.Collect$$_printf_percent$$00000002)
    .ARM.Collect$$_printf_percent$$00000003  0x080001ac   Section        6  _printf_f.o(.ARM.Collect$$_printf_percent$$00000003)
    .ARM.Collect$$_printf_percent$$00000004  0x080001b2   Section        6  _printf_e.o(.ARM.Collect$$_printf_percent$$00000004)
    .ARM.Collect$$_printf_percent$$00000005  0x080001b8   Section        6  _printf_g.o(.ARM.Collect$$_printf_percent$$00000005)
    .ARM.Collect$$_printf_percent$$00000006  0x080001be   Section        6  _printf_a.o(.ARM.Collect$$_printf_percent$$00000006)
    .ARM.Collect$$_printf_percent$$00000007  0x080001c4   Section       10  _printf_ll.o(.ARM.Collect$$_printf_percent$$00000007)
    .ARM.Collect$$_printf_percent$$00000008  0x080001ce   Section        6  _printf_i.o(.ARM.Collect$$_printf_percent$$00000008)
    .ARM.Collect$$_printf_percent$$00000009  0x080001d4   Section        6  _printf_d.o(.ARM.Collect$$_printf_percent$$00000009)
    .ARM.Collect$$_printf_percent$$0000000A  0x080001da   Section        6  _printf_u.o(.ARM.Collect$$_printf_percent$$0000000A)
    .ARM.Collect$$_printf_percent$$0000000B  0x080001e0   Section        6  _printf_o.o(.ARM.Collect$$_printf_percent$$0000000B)
    .ARM.Collect$$_printf_percent$$0000000C  0x080001e6   Section        6  _printf_x.o(.ARM.Collect$$_printf_percent$$0000000C)
    .ARM.Collect$$_printf_percent$$0000000D  0x080001ec   Section        6  _printf_lli.o(.ARM.Collect$$_printf_percent$$0000000D)
    .ARM.Collect$$_printf_percent$$0000000E  0x080001f2   Section        6  _printf_lld.o(.ARM.Collect$$_printf_percent$$0000000E)
    .ARM.Collect$$_printf_percent$$0000000F  0x080001f8   Section        6  _printf_llu.o(.ARM.Collect$$_printf_percent$$0000000F)
    .ARM.Collect$$_printf_percent$$00000010  0x080001fe   Section        6  _printf_llo.o(.ARM.Collect$$_printf_percent$$00000010)
    .ARM.Collect$$_printf_percent$$00000011  0x08000204   Section        6  _printf_llx.o(.ARM.Collect$$_printf_percent$$00000011)
    .ARM.Collect$$_printf_percent$$00000012  0x0800020a   Section       10  _printf_l.o(.ARM.Collect$$_printf_percent$$00000012)
    .ARM.Collect$$_printf_percent$$00000013  0x08000214   Section        6  _printf_c.o(.ARM.Collect$$_printf_percent$$00000013)
    .ARM.Collect$$_printf_percent$$00000014  0x0800021a   Section        6  _printf_s.o(.ARM.Collect$$_printf_percent$$00000014)
    .ARM.Collect$$_printf_percent$$00000015  0x08000220   Section        6  _printf_lc.o(.ARM.Collect$$_printf_percent$$00000015)
    .ARM.Collect$$_printf_percent$$00000016  0x08000226   Section        6  _printf_ls.o(.ARM.Collect$$_printf_percent$$00000016)
    .ARM.Collect$$_printf_percent$$00000017  0x0800022c   Section        4  _printf_percent_end.o(.ARM.Collect$$_printf_percent$$00000017)
    .ARM.Collect$$libinit$$00000000          0x08000230   Section        2  libinit.o(.ARM.Collect$$libinit$$00000000)
    .ARM.Collect$$libinit$$00000002          0x08000232   Section        0  libinit2.o(.ARM.Collect$$libinit$$00000002)
    .ARM.Collect$$libinit$$00000004          0x08000232   Section        0  libinit2.o(.ARM.Collect$$libinit$$00000004)
    .ARM.Collect$$libinit$$0000000A          0x08000232   Section        0  libinit2.o(.ARM.Collect$$libinit$$0000000A)
    .ARM.Collect$$libinit$$0000000C          0x08000232   Section        0  libinit2.o(.ARM.Collect$$libinit$$0000000C)
    .ARM.Collect$$libinit$$0000000E          0x08000232   Section        0  libinit2.o(.ARM.Collect$$libinit$$0000000E)
    .ARM.Collect$$libinit$$0000000F          0x08000232   Section        6  libinit2.o(.ARM.Collect$$libinit$$0000000F)
    .ARM.Collect$$libinit$$00000011          0x08000238   Section        0  libinit2.o(.ARM.Collect$$libinit$$00000011)
    .ARM.Collect$$libinit$$00000012          0x08000238   Section       12  libinit2.o(.ARM.Collect$$libinit$$00000012)
    .ARM.Collect$$libinit$$00000013          0x08000244   Section        0  libinit2.o(.ARM.Collect$$libinit$$00000013)
    .ARM.Collect$$libinit$$00000015          0x08000244   Section        0  libinit2.o(.ARM.Collect$$libinit$$00000015)
    .ARM.Collect$$libinit$$00000016          0x08000244   Section       10  libinit2.o(.ARM.Collect$$libinit$$00000016)
    .ARM.Collect$$libinit$$00000017          0x0800024e   Section        0  libinit2.o(.ARM.Collect$$libinit$$00000017)
    .ARM.Collect$$libinit$$00000019          0x0800024e   Section        0  libinit2.o(.ARM.Collect$$libinit$$00000019)
    .ARM.Collect$$libinit$$0000001B          0x0800024e   Section        0  libinit2.o(.ARM.Collect$$libinit$$0000001B)
    .ARM.Collect$$libinit$$0000001D          0x0800024e   Section        0  libinit2.o(.ARM.Collect$$libinit$$0000001D)
    .ARM.Collect$$libinit$$0000001F          0x0800024e   Section        0  libinit2.o(.ARM.Collect$$libinit$$0000001F)
    .ARM.Collect$$libinit$$00000021          0x0800024e   Section        0  libinit2.o(.ARM.Collect$$libinit$$00000021)
    .ARM.Collect$$libinit$$00000023          0x0800024e   Section        0  libinit2.o(.ARM.Collect$$libinit$$00000023)
    .ARM.Collect$$libinit$$00000025          0x0800024e   Section        0  libinit2.o(.ARM.Collect$$libinit$$00000025)
    .ARM.Collect$$libinit$$0000002C          0x0800024e   Section        0  libinit2.o(.ARM.Collect$$libinit$$0000002C)
    .ARM.Collect$$libinit$$0000002E          0x0800024e   Section        0  libinit2.o(.ARM.Collect$$libinit$$0000002E)
    .ARM.Collect$$libinit$$00000030          0x0800024e   Section        0  libinit2.o(.ARM.Collect$$libinit$$00000030)
    .ARM.Collect$$libinit$$00000032          0x0800024e   Section        0  libinit2.o(.ARM.Collect$$libinit$$00000032)
    .ARM.Collect$$libinit$$00000033          0x0800024e   Section        2  libinit2.o(.ARM.Collect$$libinit$$00000033)
    .ARM.Collect$$libshutdown$$00000000      0x08000250   Section        2  libshutdown.o(.ARM.Collect$$libshutdown$$00000000)
    .ARM.Collect$$libshutdown$$00000002      0x08000252   Section        0  libshutdown2.o(.ARM.Collect$$libshutdown$$00000002)
    .ARM.Collect$$libshutdown$$00000004      0x08000252   Section        0  libshutdown2.o(.ARM.Collect$$libshutdown$$00000004)
    .ARM.Collect$$libshutdown$$00000007      0x08000252   Section        0  libshutdown2.o(.ARM.Collect$$libshutdown$$00000007)
    .ARM.Collect$$libshutdown$$0000000A      0x08000252   Section        0  libshutdown2.o(.ARM.Collect$$libshutdown$$0000000A)
    .ARM.Collect$$libshutdown$$0000000C      0x08000252   Section        0  libshutdown2.o(.ARM.Collect$$libshutdown$$0000000C)
    .ARM.Collect$$libshutdown$$0000000F      0x08000252   Section        0  libshutdown2.o(.ARM.Collect$$libshutdown$$0000000F)
    .ARM.Collect$$libshutdown$$00000010      0x08000252   Section        2  libshutdown2.o(.ARM.Collect$$libshutdown$$00000010)
    .ARM.Collect$$rtentry$$00000000          0x08000254   Section        0  __rtentry.o(.ARM.Collect$$rtentry$$00000000)
    .ARM.Collect$$rtentry$$00000002          0x08000254   Section        0  __rtentry2.o(.ARM.Collect$$rtentry$$00000002)
    .ARM.Collect$$rtentry$$00000004          0x08000254   Section        6  __rtentry4.o(.ARM.Collect$$rtentry$$00000004)
    .ARM.Collect$$rtentry$$00000009          0x0800025a   Section        0  __rtentry2.o(.ARM.Collect$$rtentry$$00000009)
    .ARM.Collect$$rtentry$$0000000A          0x0800025a   Section        4  __rtentry2.o(.ARM.Collect$$rtentry$$0000000A)
    .ARM.Collect$$rtentry$$0000000C          0x0800025e   Section        0  __rtentry2.o(.ARM.Collect$$rtentry$$0000000C)
    .ARM.Collect$$rtentry$$0000000D          0x0800025e   Section        8  __rtentry2.o(.ARM.Collect$$rtentry$$0000000D)
    .ARM.Collect$$rtexit$$00000000           0x08000266   Section        2  rtexit.o(.ARM.Collect$$rtexit$$00000000)
    .ARM.Collect$$rtexit$$00000002           0x08000268   Section        0  rtexit2.o(.ARM.Collect$$rtexit$$00000002)
    .ARM.Collect$$rtexit$$00000003           0x08000268   Section        4  rtexit2.o(.ARM.Collect$$rtexit$$00000003)
    .ARM.Collect$$rtexit$$00000004           0x0800026c   Section        6  rtexit2.o(.ARM.Collect$$rtexit$$00000004)
    .text                                    0x08000274   Section        0  main.o(.text)
    .text                                    0x08000c3c   Section        0  stm32f10x_it.o(.text)
    .text                                    0x08000c4c   Section        0  system_stm32f10x.o(.text)
    SetSysClockTo72                          0x08000c4d   Thumb Code   160  system_stm32f10x.o(.text)
    .text                                    0x08000da4   Section        0  led.o(.text)
    .text                                    0x08000e38   Section        0  oled.o(.text)
    .text                                    0x08001194   Section        0  iic.o(.text)
    .text                                    0x08001540   Section        0  esp8266.o(.text)
    .text                                    0x08001920   Section        0  gps.o(.text)
    .text                                    0x08001a40   Section        0  hmc5883l.o(.text)
    .text                                    0x08001b98   Section        0  delay.o(.text)
    .text                                    0x08001cb0   Section        0  usart1.o(.text)
    .text                                    0x08001ecc   Section        0  usart2.o(.text)
    .text                                    0x08002004   Section        0  usart3.o(.text)
    .text                                    0x0800228c   Section        0  utils.o(.text)
    .text                                    0x080027f0   Section        0  iwdg.o(.text)
    .text                                    0x08002830   Section       64  startup_stm32f10x_md.o(.text)
    .text                                    0x08002870   Section        0  misc.o(.text)
    .text                                    0x08002920   Section        0  stm32f10x_gpio.o(.text)
    .text                                    0x08002b84   Section        0  stm32f10x_usart.o(.text)
    .text                                    0x08002eac   Section        0  stm32f10x_rcc.o(.text)
    .text                                    0x08003164   Section        0  stm32f10x_iwdg.o(.text)
    .text                                    0x080031a0   Section        0  bsp.o(.text)
    .text                                    0x08003208   Section        0  cpu_core.o(.text)
    .text                                    0x080033c4   Section       52  cpu_a.o(.text)
    .text                                    0x080033f8   Section        0  lib_ascii.o(.text)
    .text                                    0x08003554   Section        0  lib_mem.o(.text)
    Mem_SegAlloc                             0x080036c1   Thumb Code    46  lib_mem.o(.text)
    Mem_SegCalcTotSize                       0x080036ef   Thumb Code    42  lib_mem.o(.text)
    .text                                    0x08003bbc   Section        0  lib_str.o(.text)
    Str_FmtNbr_Int32                         0x08003e59   Thumb Code   344  lib_str.o(.text)
    Str_ParseNbr_Int32                       0x08003ff1   Thumb Code   314  lib_str.o(.text)
    .text                                    0x08004164   Section      544  lib_mem_a.o(.text)
    .text                                    0x08004384   Section        0  os_cfg_app.o(.text)
    .text                                    0x08004388   Section        0  os_core.o(.text)
    .text                                    0x08004e64   Section        0  os_dbg.o(.text)
    .text                                    0x08004e68   Section        0  os_flag.o(.text)
    .text                                    0x080055d0   Section        0  os_int.o(.text)
    .text                                    0x080058f8   Section        0  os_mem.o(.text)
    .text                                    0x08005a6c   Section        0  os_msg.o(.text)
    .text                                    0x08005bf4   Section        0  os_mutex.o(.text)
    .text                                    0x080062dc   Section        0  os_prio.o(.text)
    .text                                    0x0800634c   Section        0  os_q.o(.text)
    .text                                    0x0800695c   Section        0  os_sem.o(.text)
    .text                                    0x08006eb0   Section        0  os_stat.o(.text)
    .text                                    0x080072b0   Section        0  os_task.o(.text)
    .text                                    0x080081dc   Section        0  os_tick.o(.text)
    .text                                    0x0800852c   Section        0  os_time.o(.text)
    .text                                    0x0800883c   Section        0  os_tmr.o(.text)
    .text                                    0x08008e98   Section        0  os_cpu_c.o(.text)
    .text                                    0x08009020   Section        2  use_no_semi_2.o(.text)
    .text                                    0x08009022   Section      238  lludivv7m.o(.text)
    .text                                    0x08009110   Section        0  vsprintf.o(.text)
    .text                                    0x08009134   Section        0  __2printf.o(.text)
    .text                                    0x0800914c   Section        0  __2sprintf.o(.text)
    .text                                    0x08009178   Section        0  _printf_pad.o(.text)
    .text                                    0x080091c6   Section        0  _printf_str.o(.text)
    .text                                    0x08009218   Section        0  _printf_dec.o(.text)
    .text                                    0x08009290   Section        0  _printf_hex_int_ll_ptr.o(.text)
    _printf_hex_common                       0x08009291   Thumb Code     0  _printf_hex_int_ll_ptr.o(.text)
    .text                                    0x08009324   Section        0  __printf_flags_ss_wp.o(.text)
    .text                                    0x080094ac   Section        0  __0sscanf.o(.text)
    .text                                    0x080094e8   Section        0  _scanf_int.o(.text)
    .text                                    0x08009634   Section        0  strtok.o(.text)
    .text                                    0x08009640   Section        0  strstr.o(.text)
    .text                                    0x08009664   Section        0  strcpy.o(.text)
    .text                                    0x080096ac   Section        0  strcat.o(.text)
    .text                                    0x080096c4   Section      138  rt_memcpy_v6.o(.text)
    .text                                    0x0800974e   Section      100  rt_memcpy_w.o(.text)
    .text                                    0x080097b2   Section       68  rt_memclr.o(.text)
    .text                                    0x080097f6   Section       78  rt_memclr_w.o(.text)
    .text                                    0x08009844   Section      128  strcmpv7m.o(.text)
    .text                                    0x080098c4   Section        0  heapauxi.o(.text)
    .text                                    0x080098ca   Section        2  use_no_semi.o(.text)
    .text                                    0x080098cc   Section        0  _rserrno.o(.text)
    .text                                    0x080098e2   Section        0  _printf_truncate.o(.text)
    .text                                    0x08009906   Section        0  _printf_intcommon.o(.text)
    .text                                    0x080099b8   Section        0  _printf_charcount.o(.text)
    .text                                    0x080099e0   Section        0  _printf_char_common.o(.text)
    _printf_input_char                       0x080099e1   Thumb Code    10  _printf_char_common.o(.text)
    .text                                    0x08009a10   Section        0  _sputc.o(.text)
    .text                                    0x08009a1a   Section        0  _printf_char.o(.text)
    .text                                    0x08009a48   Section        0  _printf_char_file.o(.text)
    .text                                    0x08009a6c   Section        0  _printf_wctomb.o(.text)
    .text                                    0x08009b28   Section        0  _printf_longlong_dec.o(.text)
    .text                                    0x08009ba4   Section        0  _printf_oct_int_ll.o(.text)
    _printf_longlong_oct_internal            0x08009ba5   Thumb Code     0  _printf_oct_int_ll.o(.text)
    .text                                    0x08009c14   Section        0  _chval.o(.text)
    .text                                    0x08009c30   Section        0  scanf_char.o(.text)
    _scanf_char_input                        0x08009c31   Thumb Code    12  scanf_char.o(.text)
    .text                                    0x08009c5c   Section        0  _sgetc.o(.text)
    .text                                    0x08009c9c   Section        0  strtok_int.o(.text)
    .text                                    0x08009ce0   Section        8  rt_errno_addr_intlibspace.o(.text)
    .text                                    0x08009ce8   Section      138  lludiv10.o(.text)
    .text                                    0x08009d72   Section        0  isspace.o(.text)
    .text                                    0x08009d84   Section        0  _printf_fp_dec.o(.text)
    _fp_digits                               0x08009d87   Thumb Code   432  _printf_fp_dec.o(.text)
    .text                                    0x0800a1a4   Section        0  _printf_fp_hex.o(.text)
    .text                                    0x0800a4a0   Section        0  _printf_wchar.o(.text)
    .text                                    0x0800a4cc   Section        0  _scanf.o(.text)
    .text                                    0x0800a840   Section        0  ferror.o(.text)
    .text                                    0x0800a848   Section        0  _wcrtomb.o(.text)
    .text                                    0x0800a888   Section        0  strcspn.o(.text)
    .text                                    0x0800a8a8   Section        0  strspn.o(.text)
    .text                                    0x0800a8c4   Section        8  libspace.o(.text)
    .text                                    0x0800a8cc   Section       74  sys_stackheap_outer.o(.text)
    .text                                    0x0800a918   Section       16  rt_ctype_table.o(.text)
    .text                                    0x0800a928   Section        8  rt_locale_intlibspace.o(.text)
    .text                                    0x0800a930   Section        0  _printf_fp_infnan.o(.text)
    .text                                    0x0800a9b0   Section        0  bigflt0.o(.text)
    .text                                    0x0800aa94   Section        0  exit.o(.text)
    CL$$btod_d2e                             0x0800aaa6   Section       62  btod.o(CL$$btod_d2e)
    CL$$btod_d2e_denorm_low                  0x0800aae4   Section       70  btod.o(CL$$btod_d2e_denorm_low)
    CL$$btod_d2e_norm_op1                    0x0800ab2a   Section       96  btod.o(CL$$btod_d2e_norm_op1)
    CL$$btod_div_common                      0x0800ab8a   Section      824  btod.o(CL$$btod_div_common)
    CL$$btod_e2e                             0x0800aec2   Section      220  btod.o(CL$$btod_e2e)
    CL$$btod_ediv                            0x0800af9e   Section       42  btod.o(CL$$btod_ediv)
    CL$$btod_emul                            0x0800afc8   Section       42  btod.o(CL$$btod_emul)
    CL$$btod_mult_common                     0x0800aff2   Section      580  btod.o(CL$$btod_mult_common)
    CODE                                     0x0800b238   Section      152  os_cpu_a.o(CODE)
    i.__ARM_fpclassify                       0x0800b2d0   Section        0  fpclassify.o(i.__ARM_fpclassify)
    i.__ieee754_rem_pio2                     0x0800b2f8   Section        0  rred.o(i.__ieee754_rem_pio2)
    i.__kernel_cos                           0x0800b680   Section        0  cos_i.o(i.__kernel_cos)
    i.__kernel_poly                          0x0800b77c   Section        0  poly.o(i.__kernel_poly)
    i.__kernel_sin                           0x0800b828   Section        0  sin_i.o(i.__kernel_sin)
    i.__mathlib_dbl_divzero                  0x0800b914   Section        0  dunder.o(i.__mathlib_dbl_divzero)
    i.__mathlib_dbl_infnan                   0x0800b924   Section        0  dunder.o(i.__mathlib_dbl_infnan)
    i.__mathlib_dbl_infnan2                  0x0800b92a   Section        0  dunder.o(i.__mathlib_dbl_infnan2)
    i.__mathlib_dbl_invalid                  0x0800b92e   Section        0  dunder.o(i.__mathlib_dbl_invalid)
    i.__mathlib_dbl_overflow                 0x0800b93a   Section        0  dunder.o(i.__mathlib_dbl_overflow)
    i.__mathlib_dbl_underflow                0x0800b948   Section        0  dunder.o(i.__mathlib_dbl_underflow)
    i._is_digit                              0x0800b958   Section        0  __printf_wp.o(i._is_digit)
    i.asin                                   0x0800b968   Section        0  asin.o(i.asin)
    i.atan                                   0x0800bbd8   Section        0  atan.o(i.atan)
    i.atan2                                  0x0800bdf8   Section        0  atan2.o(i.atan2)
    i.cos                                    0x0800bf78   Section        0  cos.o(i.cos)
    i.pow                                    0x0800c014   Section        0  pow.o(i.pow)
    i.sin                                    0x0800c9ec   Section        0  sin.o(i.sin)
    i.sqrt                                   0x0800ca8c   Section        0  sqrt.o(i.sqrt)
    locale$$code                             0x0800cad8   Section       44  lc_numeric_c.o(locale$$code)
    locale$$code                             0x0800cb04   Section       44  lc_ctype_c.o(locale$$code)
    x$fpl$d2f                                0x0800cb30   Section       98  d2f.o(x$fpl$d2f)
    x$fpl$dadd                               0x0800cb94   Section      336  daddsub_clz.o(x$fpl$dadd)
    _dadd1                                   0x0800cba5   Thumb Code     0  daddsub_clz.o(x$fpl$dadd)
    x$fpl$dcheck1                            0x0800cce4   Section       16  dcheck1.o(x$fpl$dcheck1)
    x$fpl$dcmpinf                            0x0800ccf4   Section       24  dcmpi.o(x$fpl$dcmpinf)
    x$fpl$ddiv                               0x0800cd0c   Section      688  ddiv.o(x$fpl$ddiv)
    ddiv_entry                               0x0800cd13   Thumb Code     0  ddiv.o(x$fpl$ddiv)
    x$fpl$dfix                               0x0800cfbc   Section       94  dfix.o(x$fpl$dfix)
    x$fpl$dfixu                              0x0800d01c   Section       90  dfixu.o(x$fpl$dfixu)
    x$fpl$dflt                               0x0800d076   Section       46  dflt_clz.o(x$fpl$dflt)
    x$fpl$dfltu                              0x0800d0a4   Section       38  dflt_clz.o(x$fpl$dfltu)
    x$fpl$dleqf                              0x0800d0cc   Section      120  dleqf.o(x$fpl$dleqf)
    x$fpl$dmul                               0x0800d144   Section      340  dmul.o(x$fpl$dmul)
    x$fpl$dnaninf                            0x0800d298   Section      156  dnaninf.o(x$fpl$dnaninf)
    x$fpl$dretinf                            0x0800d334   Section       12  dretinf.o(x$fpl$dretinf)
    x$fpl$drleqf                             0x0800d340   Section      108  drleqf.o(x$fpl$drleqf)
    x$fpl$drsb                               0x0800d3ac   Section       22  daddsub_clz.o(x$fpl$drsb)
    x$fpl$dsqrt                              0x0800d3c4   Section      460  dsqrt_noumaal.o(x$fpl$dsqrt)
    x$fpl$dsub                               0x0800d590   Section      468  daddsub_clz.o(x$fpl$dsub)
    _dsub1                                   0x0800d5a1   Thumb Code     0  daddsub_clz.o(x$fpl$dsub)
    x$fpl$f2d                                0x0800d764   Section       86  f2d.o(x$fpl$f2d)
    x$fpl$fadd                               0x0800d7bc   Section      196  faddsub_clz.o(x$fpl$fadd)
    _fadd1                                   0x0800d7cb   Thumb Code     0  faddsub_clz.o(x$fpl$fadd)
    x$fpl$fdiv                               0x0800d880   Section      388  fdiv.o(x$fpl$fdiv)
    _fdiv1                                   0x0800d881   Thumb Code     0  fdiv.o(x$fpl$fdiv)
    x$fpl$ffix                               0x0800da04   Section       54  ffix.o(x$fpl$ffix)
    x$fpl$fflt                               0x0800da3c   Section       48  fflt_clz.o(x$fpl$fflt)
    x$fpl$fnaninf                            0x0800da6c   Section      140  fnaninf.o(x$fpl$fnaninf)
    x$fpl$fretinf                            0x0800daf8   Section       10  fretinf.o(x$fpl$fretinf)
    x$fpl$fsub                               0x0800db04   Section      234  faddsub_clz.o(x$fpl$fsub)
    _fsub1                                   0x0800db13   Thumb Code     0  faddsub_clz.o(x$fpl$fsub)
    x$fpl$printf1                            0x0800dbee   Section        4  printf1.o(x$fpl$printf1)
    x$fpl$printf2                            0x0800dbf2   Section        4  printf2.o(x$fpl$printf2)
    x$fpl$retnan                             0x0800dbf6   Section      100  retnan.o(x$fpl$retnan)
    x$fpl$scalbn                             0x0800dc5a   Section       92  scalbn.o(x$fpl$scalbn)
    x$fpl$trapveneer                         0x0800dcb6   Section       48  trapv.o(x$fpl$trapveneer)
    .constdata                               0x0800dce6   Section       16  led.o(.constdata)
    x$fpl$usenofp                            0x0800dce6   Section        0  usenofp.o(x$fpl$usenofp)
    .constdata                               0x0800dcf6   Section     2072  oled.o(.constdata)
    .constdata                               0x0800e50e   Section      256  cpu_core.o(.constdata)
    CPU_CntLeadZerosTbl                      0x0800e50e   Data         256  cpu_core.o(.constdata)
    .constdata                               0x0800e610   Section      148  lib_str.o(.constdata)
    Str_MultOvfThTbl_Int32U                  0x0800e610   Data         148  lib_str.o(.constdata)
    .constdata                               0x0800e6a4   Section      148  os_cfg_app.o(.constdata)
    .constdata                               0x0800e738   Section       40  _printf_hex_int_ll_ptr.o(.constdata)
    uc_hextab                                0x0800e738   Data          20  _printf_hex_int_ll_ptr.o(.constdata)
    lc_hextab                                0x0800e74c   Data          20  _printf_hex_int_ll_ptr.o(.constdata)
    .constdata                               0x0800e760   Section       17  __printf_flags_ss_wp.o(.constdata)
    maptable                                 0x0800e760   Data          17  __printf_flags_ss_wp.o(.constdata)
    .constdata                               0x0800e778   Section       80  asin.o(.constdata)
    pS                                       0x0800e778   Data          48  asin.o(.constdata)
    qS                                       0x0800e7a8   Data          32  asin.o(.constdata)
    .constdata                               0x0800e7c8   Section      152  atan.o(.constdata)
    atanhi                                   0x0800e7c8   Data          32  atan.o(.constdata)
    atanlo                                   0x0800e7e8   Data          32  atan.o(.constdata)
    aTodd                                    0x0800e808   Data          40  atan.o(.constdata)
    aTeven                                   0x0800e830   Data          48  atan.o(.constdata)
    .constdata                               0x0800e860   Section      136  pow.o(.constdata)
    bp                                       0x0800e860   Data          16  pow.o(.constdata)
    dp_h                                     0x0800e870   Data          16  pow.o(.constdata)
    dp_l                                     0x0800e880   Data          16  pow.o(.constdata)
    L                                        0x0800e890   Data          48  pow.o(.constdata)
    P                                        0x0800e8c0   Data          40  pow.o(.constdata)
    .constdata                               0x0800e8e8   Section        8  _printf_wctomb.o(.constdata)
    initial_mbstate                          0x0800e8e8   Data           8  _printf_wctomb.o(.constdata)
    .constdata                               0x0800e8f0   Section       48  cos_i.o(.constdata)
    C                                        0x0800e8f0   Data          48  cos_i.o(.constdata)
    .constdata                               0x0800e920   Section        8  qnan.o(.constdata)
    .constdata                               0x0800e928   Section      200  rred.o(.constdata)
    pio2s                                    0x0800e928   Data          48  rred.o(.constdata)
    twooverpi                                0x0800e958   Data         152  rred.o(.constdata)
    .constdata                               0x0800e9f0   Section       40  sin_i.o(.constdata)
    S                                        0x0800e9f0   Data          40  sin_i.o(.constdata)
    .constdata                               0x0800ea18   Section       38  _printf_fp_hex.o(.constdata)
    lc_hextab                                0x0800ea18   Data          19  _printf_fp_hex.o(.constdata)
    uc_hextab                                0x0800ea2b   Data          19  _printf_fp_hex.o(.constdata)
    .constdata                               0x0800ea40   Section      148  bigflt0.o(.constdata)
    tenpwrs_x                                0x0800ea40   Data          60  bigflt0.o(.constdata)
    tenpwrs_i                                0x0800ea7c   Data          64  bigflt0.o(.constdata)
    locale$$data                             0x0800eaf4   Section       28  lc_numeric_c.o(locale$$data)
    __lcnum_c_name                           0x0800eaf8   Data           2  lc_numeric_c.o(locale$$data)
    __lcnum_c_start                          0x0800eb00   Data           0  lc_numeric_c.o(locale$$data)
    __lcnum_c_point                          0x0800eb0c   Data           0  lc_numeric_c.o(locale$$data)
    __lcnum_c_thousands                      0x0800eb0e   Data           0  lc_numeric_c.o(locale$$data)
    __lcnum_c_grouping                       0x0800eb0f   Data           0  lc_numeric_c.o(locale$$data)
    locale$$data                             0x0800eb10   Section      272  lc_ctype_c.o(locale$$data)
    __lcnum_c_end                            0x0800eb10   Data           0  lc_numeric_c.o(locale$$data)
    __lcctype_c_name                         0x0800eb14   Data           2  lc_ctype_c.o(locale$$data)
    __lcctype_c_start                        0x0800eb1c   Data           0  lc_ctype_c.o(locale$$data)
    __lcctype_c_end                          0x0800ec20   Data           0  lc_ctype_c.o(locale$$data)
    .data                                    0x20000000   Section       24  main.o(.data)
    .data                                    0x20000018   Section       20  system_stm32f10x.o(.data)
    .data                                    0x2000002c   Section      576  oled.o(.data)
    .data                                    0x2000026c   Section        1  esp8266.o(.data)
    .data                                    0x2000026e   Section        4  delay.o(.data)
    fac_us                                   0x2000026e   Data           1  delay.o(.data)
    fac_ms                                   0x20000270   Data           2  delay.o(.data)
    .data                                    0x20000272   Section        1  usart1.o(.data)
    .data                                    0x20000274   Section        4  usart1.o(.data)
    .data                                    0x20000278   Section        1  usart2.o(.data)
    .data                                    0x20000279   Section        4  usart3.o(.data)
    .data                                    0x2000027d   Section       20  stm32f10x_rcc.o(.data)
    ADCPrescTable                            0x2000027d   Data           4  stm32f10x_rcc.o(.data)
    APBAHBPrescTable                         0x20000281   Data          16  stm32f10x_rcc.o(.data)
    .data                                    0x20000294   Section        4  cpu_core.o(.data)
    .data                                    0x20000298   Section        4  lib_mem.o(.data)
    .data                                    0x2000029c   Section        8  os_prio.o(.data)
    .data                                    0x200002a4   Section        4  os_var.o(.data)
    .data                                    0x200002a8   Section        4  os_var.o(.data)
    .data                                    0x200002ac   Section        4  os_var.o(.data)
    .data                                    0x200002b0   Section        4  os_var.o(.data)
    .data                                    0x200002b4   Section        4  os_var.o(.data)
    .data                                    0x200002b8   Section        4  os_var.o(.data)
    .data                                    0x200002bc   Section        4  os_var.o(.data)
    .data                                    0x200002c0   Section        4  os_var.o(.data)
    .data                                    0x200002c4   Section        1  os_var.o(.data)
    .data                                    0x200002c5   Section        1  os_var.o(.data)
    .data                                    0x200002c8   Section        4  os_var.o(.data)
    .data                                    0x200002cc   Section        4  os_var.o(.data)
    .data                                    0x200002d0   Section        2  os_var.o(.data)
    .data                                    0x200002d2   Section        2  os_var.o(.data)
    .data                                    0x200002d4   Section        2  os_var.o(.data)
    .data                                    0x200002d8   Section        4  os_var.o(.data)
    .data                                    0x200002dc   Section        4  os_var.o(.data)
    .data                                    0x200002e0   Section        2  os_var.o(.data)
    .data                                    0x200002e4   Section        4  os_var.o(.data)
    .data                                    0x200002e8   Section        2  os_var.o(.data)
    .data                                    0x200002ec   Section        4  os_var.o(.data)
    .data                                    0x200002f0   Section        2  os_var.o(.data)
    .data                                    0x200002f2   Section        1  os_var.o(.data)
    .data                                    0x200002f3   Section        1  os_var.o(.data)
    .data                                    0x200002f4   Section        1  os_var.o(.data)
    .data                                    0x200002f8   Section        4  os_var.o(.data)
    .data                                    0x200002fc   Section        2  os_var.o(.data)
    .data                                    0x20000300   Section        4  os_var.o(.data)
    .data                                    0x20000304   Section        4  os_var.o(.data)
    .data                                    0x20000308   Section        4  os_var.o(.data)
    .data                                    0x2000030c   Section        1  os_var.o(.data)
    .data                                    0x20000310   Section        4  os_var.o(.data)
    .data                                    0x20000314   Section        1  os_var.o(.data)
    .data                                    0x20000318   Section        4  os_var.o(.data)
    .data                                    0x2000031c   Section        2  os_var.o(.data)
    .data                                    0x2000031e   Section        1  os_var.o(.data)
    .data                                    0x20000320   Section        2  os_var.o(.data)
    .data                                    0x20000322   Section        2  os_var.o(.data)
    .data                                    0x20000324   Section        4  os_var.o(.data)
    .data                                    0x20000328   Section        4  os_var.o(.data)
    .data                                    0x2000032c   Section        4  os_var.o(.data)
    .data                                    0x20000330   Section        1  os_var.o(.data)
    .data                                    0x20000334   Section        4  os_var.o(.data)
    .data                                    0x20000338   Section        4  os_var.o(.data)
    .data                                    0x2000033c   Section        4  os_var.o(.data)
    .data                                    0x20000340   Section        2  os_var.o(.data)
    .data                                    0x20000342   Section        1  os_var.o(.data)
    .data                                    0x20000344   Section        4  os_var.o(.data)
    .data                                    0x20000348   Section        4  os_var.o(.data)
    .data                                    0x2000034c   Section        4  os_var.o(.data)
    .data                                    0x20000350   Section        2  os_var.o(.data)
    .data                                    0x20000354   Section        4  os_var.o(.data)
    .data                                    0x20000358   Section        4  os_var.o(.data)
    .data                                    0x2000035c   Section        4  os_var.o(.data)
    .data                                    0x20000360   Section        4  os_var.o(.data)
    .data                                    0x20000364   Section        4  os_var.o(.data)
    .data                                    0x20000368   Section        4  os_var.o(.data)
    .data                                    0x2000036c   Section        4  os_cpu_c.o(.data)
    .data                                    0x20000370   Section        4  strtok.o(.data)
    _strtok_saves1                           0x20000370   Data           4  strtok.o(.data)
    .bss                                     0x20000374   Section     6392  main.o(.bss)
    .bss                                     0x20001c6c   Section      400  usart1.o(.bss)
    .bss                                     0x20001dfc   Section      400  usart2.o(.bss)
    .bss                                     0x20001f8c   Section      600  usart3.o(.bss)
    .bss                                     0x200021e4   Section       16  cpu_core.o(.bss)
    .bss                                     0x200021f4   Section     1096  lib_mem.o(.bss)
    .bss                                     0x2000263c   Section      512  os_cfg_app.o(.bss)
    .bss                                     0x2000283c   Section      320  os_cfg_app.o(.bss)
    .bss                                     0x2000297c   Section      512  os_cfg_app.o(.bss)
    .bss                                     0x20002b7c   Section      512  os_cfg_app.o(.bss)
    .bss                                     0x20002d7c   Section     1600  os_cfg_app.o(.bss)
    .bss                                     0x200033bc   Section      512  os_cfg_app.o(.bss)
    .bss                                     0x200035bc   Section      512  os_cfg_app.o(.bss)
    .bss                                     0x200037bc   Section      136  os_cfg_app.o(.bss)
    .bss                                     0x20003844   Section      512  os_cfg_app.o(.bss)
    .bss                                     0x20003a44   Section      136  os_cfg_app.o(.bss)
    .bss                                     0x20003acc   Section      196  os_var.o(.bss)
    .bss                                     0x20003b90   Section      196  os_var.o(.bss)
    .bss                                     0x20003c54   Section       12  os_var.o(.bss)
    .bss                                     0x20003c60   Section      768  os_var.o(.bss)
    .bss                                     0x20003f60   Section      196  os_var.o(.bss)
    .bss                                     0x20004024   Section      196  os_var.o(.bss)
    .bss                                     0x200040e8   Section      196  os_var.o(.bss)
    .bss                                     0x200041ac   Section       96  libspace.o(.bss)
    HEAP                                     0x20004210   Section     1024  startup_stm32f10x_md.o(HEAP)
    Heap_Mem                                 0x20004210   Data        1024  startup_stm32f10x_md.o(HEAP)
    STACK                                    0x20004610   Section     2048  startup_stm32f10x_md.o(STACK)
    Stack_Mem                                0x20004610   Data        2048  startup_stm32f10x_md.o(STACK)
    __initial_sp                             0x20004e10   Data           0  startup_stm32f10x_md.o(STACK)

    Global Symbols

    Symbol Name                              Value     Ov Type        Size  Object(Section)

    BuildAttributes$$THM_ISAv4$P$D$K$B$S$PE$A:L22UL41UL21$X:L11$S22US41US21$IEEE1$IW$USESV6$~STKCKD$USESV7$~SHL$OTIME$ROPI$IEEEX$EBA8$UX$STANDARDLIB$REQ8$PRES8$EABIv2 0x00000000   Number         0  anon$$obj.o ABSOLUTE
    __ARM_use_no_argv                        0x00000000   Number         0  main.o ABSOLUTE
    _printf_flags                            0x00000000   Number         0  printf_stubs.o ABSOLUTE
    _printf_return_value                     0x00000000   Number         0  printf_stubs.o ABSOLUTE
    _printf_sizespec                         0x00000000   Number         0  printf_stubs.o ABSOLUTE
    _printf_widthprec                        0x00000000   Number         0  printf_stubs.o ABSOLUTE
    __ARM_exceptions_init                     - Undefined Weak Reference
    __alloca_initialize                       - Undefined Weak Reference
    __arm_preinit_                            - Undefined Weak Reference
    __cpp_initialize__aeabi_                  - Undefined Weak Reference
    __cxa_finalize                            - Undefined Weak Reference
    __sigvec_lookup                           - Undefined Weak Reference
    _atexit_init                              - Undefined Weak Reference
    _call_atexit_fns                          - Undefined Weak Reference
    _clock_init                               - Undefined Weak Reference
    _fp_trap_init                             - Undefined Weak Reference
    _fp_trap_shutdown                         - Undefined Weak Reference
    _get_lc_collate                           - Undefined Weak Reference
    _get_lc_monetary                          - Undefined Weak Reference
    _get_lc_time                              - Undefined Weak Reference
    _getenv_init                              - Undefined Weak Reference
    _handle_redirection                       - Undefined Weak Reference
    _init_alloc                               - Undefined Weak Reference
    _init_user_alloc                          - Undefined Weak Reference
    _initio                                   - Undefined Weak Reference
    _mutex_acquire                            - Undefined Weak Reference
    _mutex_release                            - Undefined Weak Reference
    _printf_mbtowc                            - Undefined Weak Reference
    _printf_wc                                - Undefined Weak Reference
    _rand_init                                - Undefined Weak Reference
    _scanf_longlong                           - Undefined Weak Reference
    _scanf_mbtowc                             - Undefined Weak Reference
    _scanf_real                               - Undefined Weak Reference
    _scanf_string                             - Undefined Weak Reference
    _scanf_wctomb                             - Undefined Weak Reference
    _scanf_wstring                            - Undefined Weak Reference
    _signal_finish                            - Undefined Weak Reference
    _signal_init                              - Undefined Weak Reference
    _terminate_alloc                          - Undefined Weak Reference
    _terminate_user_alloc                     - Undefined Weak Reference
    _terminateio                              - Undefined Weak Reference
    __Vectors_Size                           0x000000ec   Number         0  startup_stm32f10x_md.o ABSOLUTE
    __Vectors                                0x08000000   Data           4  startup_stm32f10x_md.o(RESET)
    __Vectors_End                            0x080000ec   Data           0  startup_stm32f10x_md.o(RESET)
    __main                                   0x080000ed   Thumb Code     8  __main.o(!!!main)
    __scatterload                            0x080000f5   Thumb Code     0  __scatter.o(!!!scatter)
    __scatterload_rt2                        0x080000f5   Thumb Code    44  __scatter.o(!!!scatter)
    __scatterload_rt2_thumb_only             0x080000f5   Thumb Code     0  __scatter.o(!!!scatter)
    __scatterload_null                       0x08000103   Thumb Code     0  __scatter.o(!!!scatter)
    __decompress                             0x08000129   Thumb Code    90  __dczerorl2.o(!!dczerorl2)
    __decompress1                            0x08000129   Thumb Code     0  __dczerorl2.o(!!dczerorl2)
    __scatterload_zeroinit                   0x08000185   Thumb Code    28  __scatter_zi.o(!!handler_zi)
    _printf_n                                0x080001a1   Thumb Code     0  _printf_n.o(.ARM.Collect$$_printf_percent$$00000001)
    _printf_percent                          0x080001a1   Thumb Code     0  _printf_percent.o(.ARM.Collect$$_printf_percent$$00000000)
    _printf_p                                0x080001a7   Thumb Code     0  _printf_p.o(.ARM.Collect$$_printf_percent$$00000002)
    _printf_f                                0x080001ad   Thumb Code     0  _printf_f.o(.ARM.Collect$$_printf_percent$$00000003)
    _printf_e                                0x080001b3   Thumb Code     0  _printf_e.o(.ARM.Collect$$_printf_percent$$00000004)
    _printf_g                                0x080001b9   Thumb Code     0  _printf_g.o(.ARM.Collect$$_printf_percent$$00000005)
    _printf_a                                0x080001bf   Thumb Code     0  _printf_a.o(.ARM.Collect$$_printf_percent$$00000006)
    _printf_ll                               0x080001c5   Thumb Code     0  _printf_ll.o(.ARM.Collect$$_printf_percent$$00000007)
    _printf_i                                0x080001cf   Thumb Code     0  _printf_i.o(.ARM.Collect$$_printf_percent$$00000008)
    _printf_d                                0x080001d5   Thumb Code     0  _printf_d.o(.ARM.Collect$$_printf_percent$$00000009)
    _printf_u                                0x080001db   Thumb Code     0  _printf_u.o(.ARM.Collect$$_printf_percent$$0000000A)
    _printf_o                                0x080001e1   Thumb Code     0  _printf_o.o(.ARM.Collect$$_printf_percent$$0000000B)
    _printf_x                                0x080001e7   Thumb Code     0  _printf_x.o(.ARM.Collect$$_printf_percent$$0000000C)
    _printf_lli                              0x080001ed   Thumb Code     0  _printf_lli.o(.ARM.Collect$$_printf_percent$$0000000D)
    _printf_lld                              0x080001f3   Thumb Code     0  _printf_lld.o(.ARM.Collect$$_printf_percent$$0000000E)
    _printf_llu                              0x080001f9   Thumb Code     0  _printf_llu.o(.ARM.Collect$$_printf_percent$$0000000F)
    _printf_llo                              0x080001ff   Thumb Code     0  _printf_llo.o(.ARM.Collect$$_printf_percent$$00000010)
    _printf_llx                              0x08000205   Thumb Code     0  _printf_llx.o(.ARM.Collect$$_printf_percent$$00000011)
    _printf_l                                0x0800020b   Thumb Code     0  _printf_l.o(.ARM.Collect$$_printf_percent$$00000012)
    _printf_c                                0x08000215   Thumb Code     0  _printf_c.o(.ARM.Collect$$_printf_percent$$00000013)
    _printf_s                                0x0800021b   Thumb Code     0  _printf_s.o(.ARM.Collect$$_printf_percent$$00000014)
    _printf_lc                               0x08000221   Thumb Code     0  _printf_lc.o(.ARM.Collect$$_printf_percent$$00000015)
    _printf_ls                               0x08000227   Thumb Code     0  _printf_ls.o(.ARM.Collect$$_printf_percent$$00000016)
    _printf_percent_end                      0x0800022d   Thumb Code     0  _printf_percent_end.o(.ARM.Collect$$_printf_percent$$00000017)
    __rt_lib_init                            0x08000231   Thumb Code     0  libinit.o(.ARM.Collect$$libinit$$00000000)
    __rt_lib_init_fp_1                       0x08000233   Thumb Code     0  libinit2.o(.ARM.Collect$$libinit$$00000002)
    __rt_lib_init_heap_1                     0x08000233   Thumb Code     0  libinit2.o(.ARM.Collect$$libinit$$0000000A)
    __rt_lib_init_lc_common                  0x08000233   Thumb Code     0  libinit2.o(.ARM.Collect$$libinit$$0000000F)
    __rt_lib_init_preinit_1                  0x08000233   Thumb Code     0  libinit2.o(.ARM.Collect$$libinit$$00000004)
    __rt_lib_init_rand_1                     0x08000233   Thumb Code     0  libinit2.o(.ARM.Collect$$libinit$$0000000E)
    __rt_lib_init_user_alloc_1               0x08000233   Thumb Code     0  libinit2.o(.ARM.Collect$$libinit$$0000000C)
    __rt_lib_init_lc_collate_1               0x08000239   Thumb Code     0  libinit2.o(.ARM.Collect$$libinit$$00000011)
    __rt_lib_init_lc_ctype_2                 0x08000239   Thumb Code     0  libinit2.o(.ARM.Collect$$libinit$$00000012)
    __rt_lib_init_lc_ctype_1                 0x08000245   Thumb Code     0  libinit2.o(.ARM.Collect$$libinit$$00000013)
    __rt_lib_init_lc_monetary_1              0x08000245   Thumb Code     0  libinit2.o(.ARM.Collect$$libinit$$00000015)
    __rt_lib_init_lc_numeric_2               0x08000245   Thumb Code     0  libinit2.o(.ARM.Collect$$libinit$$00000016)
    __rt_lib_init_alloca_1                   0x0800024f   Thumb Code     0  libinit2.o(.ARM.Collect$$libinit$$0000002E)
    __rt_lib_init_argv_1                     0x0800024f   Thumb Code     0  libinit2.o(.ARM.Collect$$libinit$$0000002C)
    __rt_lib_init_atexit_1                   0x0800024f   Thumb Code     0  libinit2.o(.ARM.Collect$$libinit$$0000001B)
    __rt_lib_init_clock_1                    0x0800024f   Thumb Code     0  libinit2.o(.ARM.Collect$$libinit$$00000021)
    __rt_lib_init_cpp_1                      0x0800024f   Thumb Code     0  libinit2.o(.ARM.Collect$$libinit$$00000032)
    __rt_lib_init_exceptions_1               0x0800024f   Thumb Code     0  libinit2.o(.ARM.Collect$$libinit$$00000030)
    __rt_lib_init_fp_trap_1                  0x0800024f   Thumb Code     0  libinit2.o(.ARM.Collect$$libinit$$0000001F)
    __rt_lib_init_getenv_1                   0x0800024f   Thumb Code     0  libinit2.o(.ARM.Collect$$libinit$$00000023)
    __rt_lib_init_lc_numeric_1               0x0800024f   Thumb Code     0  libinit2.o(.ARM.Collect$$libinit$$00000017)
    __rt_lib_init_lc_time_1                  0x0800024f   Thumb Code     0  libinit2.o(.ARM.Collect$$libinit$$00000019)
    __rt_lib_init_return                     0x0800024f   Thumb Code     0  libinit2.o(.ARM.Collect$$libinit$$00000033)
    __rt_lib_init_signal_1                   0x0800024f   Thumb Code     0  libinit2.o(.ARM.Collect$$libinit$$0000001D)
    __rt_lib_init_stdio_1                    0x0800024f   Thumb Code     0  libinit2.o(.ARM.Collect$$libinit$$00000025)
    __rt_lib_shutdown                        0x08000251   Thumb Code     0  libshutdown.o(.ARM.Collect$$libshutdown$$00000000)
    __rt_lib_shutdown_cpp_1                  0x08000253   Thumb Code     0  libshutdown2.o(.ARM.Collect$$libshutdown$$00000002)
    __rt_lib_shutdown_fp_trap_1              0x08000253   Thumb Code     0  libshutdown2.o(.ARM.Collect$$libshutdown$$00000007)
    __rt_lib_shutdown_heap_1                 0x08000253   Thumb Code     0  libshutdown2.o(.ARM.Collect$$libshutdown$$0000000F)
    __rt_lib_shutdown_return                 0x08000253   Thumb Code     0  libshutdown2.o(.ARM.Collect$$libshutdown$$00000010)
    __rt_lib_shutdown_signal_1               0x08000253   Thumb Code     0  libshutdown2.o(.ARM.Collect$$libshutdown$$0000000A)
    __rt_lib_shutdown_stdio_1                0x08000253   Thumb Code     0  libshutdown2.o(.ARM.Collect$$libshutdown$$00000004)
    __rt_lib_shutdown_user_alloc_1           0x08000253   Thumb Code     0  libshutdown2.o(.ARM.Collect$$libshutdown$$0000000C)
    __rt_entry                               0x08000255   Thumb Code     0  __rtentry.o(.ARM.Collect$$rtentry$$00000000)
    __rt_entry_presh_1                       0x08000255   Thumb Code     0  __rtentry2.o(.ARM.Collect$$rtentry$$00000002)
    __rt_entry_sh                            0x08000255   Thumb Code     0  __rtentry4.o(.ARM.Collect$$rtentry$$00000004)
    __rt_entry_li                            0x0800025b   Thumb Code     0  __rtentry2.o(.ARM.Collect$$rtentry$$0000000A)
    __rt_entry_postsh_1                      0x0800025b   Thumb Code     0  __rtentry2.o(.ARM.Collect$$rtentry$$00000009)
    __rt_entry_main                          0x0800025f   Thumb Code     0  __rtentry2.o(.ARM.Collect$$rtentry$$0000000D)
    __rt_entry_postli_1                      0x0800025f   Thumb Code     0  __rtentry2.o(.ARM.Collect$$rtentry$$0000000C)
    __rt_exit                                0x08000267   Thumb Code     0  rtexit.o(.ARM.Collect$$rtexit$$00000000)
    __rt_exit_ls                             0x08000269   Thumb Code     0  rtexit2.o(.ARM.Collect$$rtexit$$00000003)
    __rt_exit_prels_1                        0x08000269   Thumb Code     0  rtexit2.o(.ARM.Collect$$rtexit$$00000002)
    __rt_exit_exit                           0x0800026d   Thumb Code     0  rtexit2.o(.ARM.Collect$$rtexit$$00000004)
    hc14_task                                0x08000275   Thumb Code   226  main.o(.text)
    gps_task                                 0x08000357   Thumb Code   150  main.o(.text)
    point_task                               0x080003ed   Thumb Code   152  main.o(.text)
    oled_task                                0x08000485   Thumb Code  1036  main.o(.text)
    mqtt_task                                0x08000891   Thumb Code   208  main.o(.text)
    start_task                               0x08000961   Thumb Code   318  main.o(.text)
    main                                     0x08000a9f   Thumb Code   392  main.o(.text)
    NMI_Handler                              0x08000c3d   Thumb Code     2  stm32f10x_it.o(.text)
    HardFault_Handler                        0x08000c3f   Thumb Code     2  stm32f10x_it.o(.text)
    MemManage_Handler                        0x08000c41   Thumb Code     2  stm32f10x_it.o(.text)
    BusFault_Handler                         0x08000c43   Thumb Code     2  stm32f10x_it.o(.text)
    UsageFault_Handler                       0x08000c45   Thumb Code     2  stm32f10x_it.o(.text)
    SVC_Handler                              0x08000c47   Thumb Code     2  stm32f10x_it.o(.text)
    DebugMon_Handler                         0x08000c49   Thumb Code     2  stm32f10x_it.o(.text)
    SystemInit                               0x08000ced   Thumb Code    64  system_stm32f10x.o(.text)
    SystemCoreClockUpdate                    0x08000d2d   Thumb Code    86  system_stm32f10x.o(.text)
    led_init                                 0x08000da5   Thumb Code    76  led.o(.text)
    led_set_light_angle                      0x08000df1   Thumb Code    64  led.o(.text)
    oled_write_byte                          0x08000e39   Thumb Code    24  oled.o(.text)
    oled_set_pos                             0x08000e51   Thumb Code    38  oled.o(.text)
    oled_display_on                          0x08000e77   Thumb Code    28  oled.o(.text)
    oled_display_off                         0x08000e93   Thumb Code    28  oled.o(.text)
    oled_clear                               0x08000eaf   Thumb Code    60  oled.o(.text)
    oled_show_char                           0x08000eeb   Thumb Code   128  oled.o(.text)
    oled_pow                                 0x08000f6b   Thumb Code    16  oled.o(.text)
    oled_show_num                            0x08000f7b   Thumb Code   106  oled.o(.text)
    oled_show_string                         0x08000fe5   Thumb Code    52  oled.o(.text)
    oled_show_chinese                        0x08001019   Thumb Code    72  oled.o(.text)
    oled_draw_bmp                            0x08001061   Thumb Code    64  oled.o(.text)
    oled_init                                0x080010a1   Thumb Code   232  oled.o(.text)
    iic_sda_read                             0x08001195   Thumb Code     8  iic.o(.text)
    iic_sda_write                            0x0800119d   Thumb Code    34  iic.o(.text)
    iic_scl_write                            0x080011bf   Thumb Code    34  iic.o(.text)
    iic_init                                 0x080011e1   Thumb Code    50  iic.o(.text)
    iic_sda_output_mode                      0x08001213   Thumb Code    30  iic.o(.text)
    iic_sda_input_mode                       0x08001231   Thumb Code    24  iic.o(.text)
    iic_send_start                           0x08001249   Thumb Code    32  iic.o(.text)
    iic_send_stop                            0x08001269   Thumb Code    32  iic.o(.text)
    iic_send_bytes                           0x08001289   Thumb Code    62  iic.o(.text)
    iic_read_bytes                           0x080012c7   Thumb Code    52  iic.o(.text)
    iic_read_ack                             0x080012fb   Thumb Code    34  iic.o(.text)
    iic_send_ack                             0x0800131d   Thumb Code    46  iic.o(.text)
    iic_send_data                            0x0800134b   Thumb Code   104  iic.o(.text)
    iic_read_data                            0x080013b3   Thumb Code   136  iic.o(.text)
    iic_send_data_no_mem                     0x0800143b   Thumb Code    82  iic.o(.text)
    iic_read_data_no_mem                     0x0800148d   Thumb Code    94  iic.o(.text)
    esp8266_clear                            0x08001541   Thumb Code    18  esp8266.o(.text)
    esp8266_wait_receive                     0x08001553   Thumb Code    28  esp8266.o(.text)
    esp8266_send_cmd                         0x0800156f   Thumb Code    66  esp8266.o(.text)
    esp8266_send_mqtt_message                0x080015b1   Thumb Code   134  esp8266.o(.text)
    esp8266_send_heartbeat                   0x08001637   Thumb Code    54  esp8266.o(.text)
    esp8266_init                             0x0800166d   Thumb Code     4  esp8266.o(.text)
    esp8266_connect_mqtt                     0x08001671   Thumb Code   282  esp8266.o(.text)
    esp8266_get_connected_state              0x0800178b   Thumb Code    34  esp8266.o(.text)
    gps_init                                 0x08001921   Thumb Code     4  gps.o(.text)
    gps_get_info                             0x08001925   Thumb Code   258  gps.o(.text)
    hmc5883l_rawread                         0x08001a41   Thumb Code    62  hmc5883l.o(.text)
    hmc5883l_init                            0x08001a7f   Thumb Code    26  hmc5883l.o(.text)
    hmc5883l_get_angle                       0x08001a99   Thumb Code   204  hmc5883l.o(.text)
    delay_osschedlock                        0x08001b99   Thumb Code    10  delay.o(.text)
    delay_osschedunlock                      0x08001ba3   Thumb Code    10  delay.o(.text)
    delay_ostimedly                          0x08001bad   Thumb Code    12  delay.o(.text)
    SysTick_Handler                          0x08001bb9   Thumb Code    28  delay.o(.text)
    delay_init                               0x08001bd5   Thumb Code    76  delay.o(.text)
    delay_us                                 0x08001c21   Thumb Code    62  delay.o(.text)
    delay_ms                                 0x08001c5f   Thumb Code    54  delay.o(.text)
    usart1_init                              0x08001cb1   Thumb Code   172  usart1.o(.text)
    usart1_send_byte                         0x08001d5d   Thumb Code    26  usart1.o(.text)
    usart1_send_u32                          0x08001d77   Thumb Code    34  usart1.o(.text)
    usart1_send_array                        0x08001d99   Thumb Code    26  usart1.o(.text)
    usart1_send_string                       0x08001db3   Thumb Code    24  usart1.o(.text)
    usart1_pow                               0x08001dcb   Thumb Code    14  usart1.o(.text)
    usart1_send_number                       0x08001dd9   Thumb Code    54  usart1.o(.text)
    _sys_exit                                0x08001e0f   Thumb Code     2  usart1.o(.text)
    fputc                                    0x08001e11   Thumb Code    18  usart1.o(.text)
    usart1_printf                            0x08001e23   Thumb Code    28  usart1.o(.text)
    usart1_get_rx_count                      0x08001e3f   Thumb Code     6  usart1.o(.text)
    usart1_get_rx_data                       0x08001e45   Thumb Code     4  usart1.o(.text)
    USART1_IRQHandler                        0x08001e49   Thumb Code   114  usart1.o(.text)
    usart2_init                              0x08001ecd   Thumb Code   144  usart2.o(.text)
    usart2_pow                               0x08001f5d   Thumb Code    14  usart2.o(.text)
    usart2_get_rx_count                      0x08001f6b   Thumb Code     6  usart2.o(.text)
    usart2_get_rx_data                       0x08001f71   Thumb Code     4  usart2.o(.text)
    USART2_IRQHandler                        0x08001f75   Thumb Code   126  usart2.o(.text)
    usart3_init                              0x08002005   Thumb Code   172  usart3.o(.text)
    usart3_send_byte                         0x080020b1   Thumb Code    26  usart3.o(.text)
    usart3_send_array                        0x080020cb   Thumb Code    26  usart3.o(.text)
    usart3_send_string                       0x080020e5   Thumb Code    24  usart3.o(.text)
    usart3_pow                               0x080020fd   Thumb Code    14  usart3.o(.text)
    usart3_send_number                       0x0800210b   Thumb Code    54  usart3.o(.text)
    usart3_printf                            0x08002141   Thumb Code    28  usart3.o(.text)
    usart3_get_rx_count                      0x0800215d   Thumb Code     6  usart3.o(.text)
    usart3_get_rx_data                       0x08002163   Thumb Code     4  usart3.o(.text)
    USART3_IRQHandler                        0x08002167   Thumb Code   228  usart3.o(.text)
    get_check_sum                            0x0800228d   Thumb Code    42  utils.o(.text)
    check_sum                                0x080022b7   Thumb Code    80  utils.o(.text)
    uct_to_beijing                           0x08002307   Thumb Code   128  utils.o(.text)
    rad                                      0x08002387   Thumb Code    22  utils.o(.text)
    get_distance                             0x0800239d   Thumb Code   212  utils.o(.text)
    get_angle                                0x08002471   Thumb Code   134  utils.o(.text)
    gps_from_message                         0x080024f7   Thumb Code   212  utils.o(.text)
    gps_get_distance_and_angle               0x080025cb   Thumb Code   460  utils.o(.text)
    gps_to_message                           0x08002797   Thumb Code    60  utils.o(.text)
    iwdg_init                                0x080027f1   Thumb Code    54  iwdg.o(.text)
    iwdg_feed                                0x08002827   Thumb Code     4  iwdg.o(.text)
    Reset_Handler                            0x08002831   Thumb Code     8  startup_stm32f10x_md.o(.text)
    ADC1_2_IRQHandler                        0x0800284b   Thumb Code     0  startup_stm32f10x_md.o(.text)
    CAN1_RX1_IRQHandler                      0x0800284b   Thumb Code     0  startup_stm32f10x_md.o(.text)
    CAN1_SCE_IRQHandler                      0x0800284b   Thumb Code     0  startup_stm32f10x_md.o(.text)
    DMA1_Channel1_IRQHandler                 0x0800284b   Thumb Code     0  startup_stm32f10x_md.o(.text)
    DMA1_Channel2_IRQHandler                 0x0800284b   Thumb Code     0  startup_stm32f10x_md.o(.text)
    DMA1_Channel3_IRQHandler                 0x0800284b   Thumb Code     0  startup_stm32f10x_md.o(.text)
    DMA1_Channel4_IRQHandler                 0x0800284b   Thumb Code     0  startup_stm32f10x_md.o(.text)
    DMA1_Channel5_IRQHandler                 0x0800284b   Thumb Code     0  startup_stm32f10x_md.o(.text)
    DMA1_Channel6_IRQHandler                 0x0800284b   Thumb Code     0  startup_stm32f10x_md.o(.text)
    DMA1_Channel7_IRQHandler                 0x0800284b   Thumb Code     0  startup_stm32f10x_md.o(.text)
    EXTI0_IRQHandler                         0x0800284b   Thumb Code     0  startup_stm32f10x_md.o(.text)
    EXTI15_10_IRQHandler                     0x0800284b   Thumb Code     0  startup_stm32f10x_md.o(.text)
    EXTI1_IRQHandler                         0x0800284b   Thumb Code     0  startup_stm32f10x_md.o(.text)
    EXTI2_IRQHandler                         0x0800284b   Thumb Code     0  startup_stm32f10x_md.o(.text)
    EXTI3_IRQHandler                         0x0800284b   Thumb Code     0  startup_stm32f10x_md.o(.text)
    EXTI4_IRQHandler                         0x0800284b   Thumb Code     0  startup_stm32f10x_md.o(.text)
    EXTI9_5_IRQHandler                       0x0800284b   Thumb Code     0  startup_stm32f10x_md.o(.text)
    FLASH_IRQHandler                         0x0800284b   Thumb Code     0  startup_stm32f10x_md.o(.text)
    I2C1_ER_IRQHandler                       0x0800284b   Thumb Code     0  startup_stm32f10x_md.o(.text)
    I2C1_EV_IRQHandler                       0x0800284b   Thumb Code     0  startup_stm32f10x_md.o(.text)
    I2C2_ER_IRQHandler                       0x0800284b   Thumb Code     0  startup_stm32f10x_md.o(.text)
    I2C2_EV_IRQHandler                       0x0800284b   Thumb Code     0  startup_stm32f10x_md.o(.text)
    PVD_IRQHandler                           0x0800284b   Thumb Code     0  startup_stm32f10x_md.o(.text)
    RCC_IRQHandler                           0x0800284b   Thumb Code     0  startup_stm32f10x_md.o(.text)
    RTCAlarm_IRQHandler                      0x0800284b   Thumb Code     0  startup_stm32f10x_md.o(.text)
    RTC_IRQHandler                           0x0800284b   Thumb Code     0  startup_stm32f10x_md.o(.text)
    SPI1_IRQHandler                          0x0800284b   Thumb Code     0  startup_stm32f10x_md.o(.text)
    SPI2_IRQHandler                          0x0800284b   Thumb Code     0  startup_stm32f10x_md.o(.text)
    TAMPER_IRQHandler                        0x0800284b   Thumb Code     0  startup_stm32f10x_md.o(.text)
    TIM1_BRK_IRQHandler                      0x0800284b   Thumb Code     0  startup_stm32f10x_md.o(.text)
    TIM1_CC_IRQHandler                       0x0800284b   Thumb Code     0  startup_stm32f10x_md.o(.text)
    TIM1_TRG_COM_IRQHandler                  0x0800284b   Thumb Code     0  startup_stm32f10x_md.o(.text)
    TIM1_UP_IRQHandler                       0x0800284b   Thumb Code     0  startup_stm32f10x_md.o(.text)
    TIM2_IRQHandler                          0x0800284b   Thumb Code     0  startup_stm32f10x_md.o(.text)
    TIM3_IRQHandler                          0x0800284b   Thumb Code     0  startup_stm32f10x_md.o(.text)
    TIM4_IRQHandler                          0x0800284b   Thumb Code     0  startup_stm32f10x_md.o(.text)
    USBWakeUp_IRQHandler                     0x0800284b   Thumb Code     0  startup_stm32f10x_md.o(.text)
    USB_HP_CAN1_TX_IRQHandler                0x0800284b   Thumb Code     0  startup_stm32f10x_md.o(.text)
    USB_LP_CAN1_RX0_IRQHandler               0x0800284b   Thumb Code     0  startup_stm32f10x_md.o(.text)
    WWDG_IRQHandler                          0x0800284b   Thumb Code     0  startup_stm32f10x_md.o(.text)
    __user_initial_stackheap                 0x0800284d   Thumb Code     0  startup_stm32f10x_md.o(.text)
    NVIC_PriorityGroupConfig                 0x08002871   Thumb Code    10  misc.o(.text)
    NVIC_Init                                0x0800287b   Thumb Code    94  misc.o(.text)
    NVIC_SetVectorTable                      0x080028d9   Thumb Code    14  misc.o(.text)
    NVIC_SystemLPConfig                      0x080028e7   Thumb Code    20  misc.o(.text)
    SysTick_CLKSourceConfig                  0x080028fb   Thumb Code    24  misc.o(.text)
    GPIO_DeInit                              0x08002921   Thumb Code   152  stm32f10x_gpio.o(.text)
    GPIO_AFIODeInit                          0x080029b9   Thumb Code    22  stm32f10x_gpio.o(.text)
    GPIO_Init                                0x080029cf   Thumb Code   156  stm32f10x_gpio.o(.text)
    GPIO_StructInit                          0x08002a6b   Thumb Code    16  stm32f10x_gpio.o(.text)
    GPIO_ReadInputDataBit                    0x08002a7b   Thumb Code    14  stm32f10x_gpio.o(.text)
    GPIO_ReadInputData                       0x08002a89   Thumb Code     6  stm32f10x_gpio.o(.text)
    GPIO_ReadOutputDataBit                   0x08002a8f   Thumb Code    14  stm32f10x_gpio.o(.text)
    GPIO_ReadOutputData                      0x08002a9d   Thumb Code     6  stm32f10x_gpio.o(.text)
    GPIO_SetBits                             0x08002aa3   Thumb Code     4  stm32f10x_gpio.o(.text)
    GPIO_ResetBits                           0x08002aa7   Thumb Code     4  stm32f10x_gpio.o(.text)
    GPIO_WriteBit                            0x08002aab   Thumb Code    10  stm32f10x_gpio.o(.text)
    GPIO_Write                               0x08002ab5   Thumb Code     4  stm32f10x_gpio.o(.text)
    GPIO_PinLockConfig                       0x08002ab9   Thumb Code    16  stm32f10x_gpio.o(.text)
    GPIO_EventOutputConfig                   0x08002ac9   Thumb Code    22  stm32f10x_gpio.o(.text)
    GPIO_EventOutputCmd                      0x08002adf   Thumb Code     6  stm32f10x_gpio.o(.text)
    GPIO_PinRemapConfig                      0x08002ae5   Thumb Code    82  stm32f10x_gpio.o(.text)
    GPIO_EXTILineConfig                      0x08002b37   Thumb Code    34  stm32f10x_gpio.o(.text)
    GPIO_ETH_MediaInterfaceConfig            0x08002b59   Thumb Code     8  stm32f10x_gpio.o(.text)
    USART_DeInit                             0x08002b85   Thumb Code    96  stm32f10x_usart.o(.text)
    USART_Init                               0x08002be5   Thumb Code   166  stm32f10x_usart.o(.text)
    USART_StructInit                         0x08002c8b   Thumb Code    22  stm32f10x_usart.o(.text)
    USART_ClockInit                          0x08002ca1   Thumb Code    30  stm32f10x_usart.o(.text)
    USART_ClockStructInit                    0x08002cbf   Thumb Code    12  stm32f10x_usart.o(.text)
    USART_Cmd                                0x08002ccb   Thumb Code    20  stm32f10x_usart.o(.text)
    USART_ITConfig                           0x08002cdf   Thumb Code    48  stm32f10x_usart.o(.text)
    USART_DMACmd                             0x08002d0f   Thumb Code    16  stm32f10x_usart.o(.text)
    USART_SetAddress                         0x08002d1f   Thumb Code    16  stm32f10x_usart.o(.text)
    USART_WakeUpConfig                       0x08002d2f   Thumb Code    16  stm32f10x_usart.o(.text)
    USART_ReceiverWakeUpCmd                  0x08002d3f   Thumb Code    20  stm32f10x_usart.o(.text)
    USART_LINBreakDetectLengthConfig         0x08002d53   Thumb Code    16  stm32f10x_usart.o(.text)
    USART_LINCmd                             0x08002d63   Thumb Code    20  stm32f10x_usart.o(.text)
    USART_SendData                           0x08002d77   Thumb Code     8  stm32f10x_usart.o(.text)
    USART_ReceiveData                        0x08002d7f   Thumb Code     8  stm32f10x_usart.o(.text)
    USART_SendBreak                          0x08002d87   Thumb Code    10  stm32f10x_usart.o(.text)
    USART_SetGuardTime                       0x08002d91   Thumb Code    16  stm32f10x_usart.o(.text)
    USART_SetPrescaler                       0x08002da1   Thumb Code    16  stm32f10x_usart.o(.text)
    USART_SmartCardCmd                       0x08002db1   Thumb Code    20  stm32f10x_usart.o(.text)
    USART_SmartCardNACKCmd                   0x08002dc5   Thumb Code    20  stm32f10x_usart.o(.text)
    USART_HalfDuplexCmd                      0x08002dd9   Thumb Code    20  stm32f10x_usart.o(.text)
    USART_OverSampling8Cmd                   0x08002ded   Thumb Code    20  stm32f10x_usart.o(.text)
    USART_OneBitMethodCmd                    0x08002e01   Thumb Code    20  stm32f10x_usart.o(.text)
    USART_IrDAConfig                         0x08002e15   Thumb Code    16  stm32f10x_usart.o(.text)
    USART_IrDACmd                            0x08002e25   Thumb Code    20  stm32f10x_usart.o(.text)
    USART_GetFlagStatus                      0x08002e39   Thumb Code    14  stm32f10x_usart.o(.text)
    USART_ClearFlag                          0x08002e47   Thumb Code     6  stm32f10x_usart.o(.text)
    USART_GetITStatus                        0x08002e4d   Thumb Code    62  stm32f10x_usart.o(.text)
    USART_ClearITPendingBit                  0x08002e8b   Thumb Code    12  stm32f10x_usart.o(.text)
    RCC_DeInit                               0x08002ead   Thumb Code    50  stm32f10x_rcc.o(.text)
    RCC_HSEConfig                            0x08002edf   Thumb Code    48  stm32f10x_rcc.o(.text)
    RCC_GetFlagStatus                        0x08002f0f   Thumb Code    42  stm32f10x_rcc.o(.text)
    RCC_WaitForHSEStartUp                    0x08002f39   Thumb Code    44  stm32f10x_rcc.o(.text)
    RCC_AdjustHSICalibrationValue            0x08002f65   Thumb Code    16  stm32f10x_rcc.o(.text)
    RCC_HSICmd                               0x08002f75   Thumb Code     6  stm32f10x_rcc.o(.text)
    RCC_PLLConfig                            0x08002f7b   Thumb Code    16  stm32f10x_rcc.o(.text)
    RCC_PLLCmd                               0x08002f8b   Thumb Code     6  stm32f10x_rcc.o(.text)
    RCC_SYSCLKConfig                         0x08002f91   Thumb Code    14  stm32f10x_rcc.o(.text)
    RCC_GetSYSCLKSource                      0x08002f9f   Thumb Code    10  stm32f10x_rcc.o(.text)
    RCC_HCLKConfig                           0x08002fa9   Thumb Code    14  stm32f10x_rcc.o(.text)
    RCC_PCLK1Config                          0x08002fb7   Thumb Code    14  stm32f10x_rcc.o(.text)
    RCC_PCLK2Config                          0x08002fc5   Thumb Code    16  stm32f10x_rcc.o(.text)
    RCC_ITConfig                             0x08002fd5   Thumb Code    18  stm32f10x_rcc.o(.text)
    RCC_USBCLKConfig                         0x08002fe7   Thumb Code     8  stm32f10x_rcc.o(.text)
    RCC_ADCCLKConfig                         0x08002fef   Thumb Code    14  stm32f10x_rcc.o(.text)
    RCC_LSEConfig                            0x08002ffd   Thumb Code    28  stm32f10x_rcc.o(.text)
    RCC_LSICmd                               0x08003019   Thumb Code     6  stm32f10x_rcc.o(.text)
    RCC_RTCCLKConfig                         0x0800301f   Thumb Code    10  stm32f10x_rcc.o(.text)
    RCC_RTCCLKCmd                            0x08003029   Thumb Code     8  stm32f10x_rcc.o(.text)
    RCC_GetClocksFreq                        0x08003031   Thumb Code   132  stm32f10x_rcc.o(.text)
    RCC_AHBPeriphClockCmd                    0x080030b5   Thumb Code    18  stm32f10x_rcc.o(.text)
    RCC_APB2PeriphClockCmd                   0x080030c7   Thumb Code    18  stm32f10x_rcc.o(.text)
    RCC_APB1PeriphClockCmd                   0x080030d9   Thumb Code    18  stm32f10x_rcc.o(.text)
    RCC_APB2PeriphResetCmd                   0x080030eb   Thumb Code    18  stm32f10x_rcc.o(.text)
    RCC_APB1PeriphResetCmd                   0x080030fd   Thumb Code    18  stm32f10x_rcc.o(.text)
    RCC_BackupResetCmd                       0x0800310f   Thumb Code     8  stm32f10x_rcc.o(.text)
    RCC_ClockSecuritySystemCmd               0x08003117   Thumb Code     6  stm32f10x_rcc.o(.text)
    RCC_MCOConfig                            0x0800311d   Thumb Code     6  stm32f10x_rcc.o(.text)
    RCC_ClearFlag                            0x08003123   Thumb Code    12  stm32f10x_rcc.o(.text)
    RCC_GetITStatus                          0x0800312f   Thumb Code    16  stm32f10x_rcc.o(.text)
    RCC_ClearITPendingBit                    0x0800313f   Thumb Code     6  stm32f10x_rcc.o(.text)
    IWDG_WriteAccessCmd                      0x08003165   Thumb Code     6  stm32f10x_iwdg.o(.text)
    IWDG_SetPrescaler                        0x0800316b   Thumb Code     6  stm32f10x_iwdg.o(.text)
    IWDG_SetReload                           0x08003171   Thumb Code     6  stm32f10x_iwdg.o(.text)
    IWDG_ReloadCounter                       0x08003177   Thumb Code    10  stm32f10x_iwdg.o(.text)
    IWDG_Enable                              0x08003181   Thumb Code    10  stm32f10x_iwdg.o(.text)
    IWDG_GetFlagStatus                       0x0800318b   Thumb Code    16  stm32f10x_iwdg.o(.text)
    BSP_CPU_ClkFreq                          0x080031a1   Thumb Code    16  bsp.o(.text)
    CPU_TS_TmrInit                           0x080031b1   Thumb Code    38  bsp.o(.text)
    CPU_TS_TmrRd                             0x080031d7   Thumb Code     6  bsp.o(.text)
    CPU_TS32_to_uSec                         0x080031dd   Thumb Code    32  bsp.o(.text)
    CPU_NameClr                              0x08003209   Thumb Code    26  cpu_core.o(.text)
    CPU_Init                                 0x08003223   Thumb Code    18  cpu_core.o(.text)
    CPU_SW_Exception                         0x08003235   Thumb Code     2  cpu_core.o(.text)
    CPU_NameGet                              0x08003237   Thumb Code    46  cpu_core.o(.text)
    CPU_NameSet                              0x08003265   Thumb Code    62  cpu_core.o(.text)
    CPU_TS_Get32                             0x080032a3   Thumb Code     4  cpu_core.o(.text)
    CPU_TS_Update                            0x080032a7   Thumb Code     2  cpu_core.o(.text)
    CPU_TS_TmrFreqGet                        0x080032a9   Thumb Code    24  cpu_core.o(.text)
    CPU_TS_TmrFreqSet                        0x080032c1   Thumb Code     6  cpu_core.o(.text)
    CPU_CntLeadZeros08                       0x080032c7   Thumb Code    10  cpu_core.o(.text)
    CPU_CntLeadZeros16                       0x080032d1   Thumb Code    10  cpu_core.o(.text)
    CPU_CntLeadZeros32                       0x080032db   Thumb Code     4  cpu_core.o(.text)
    CPU_CntLeadZeros64                       0x080032df   Thumb Code   152  cpu_core.o(.text)
    CPU_CntTrailZeros08                      0x08003377   Thumb Code    10  cpu_core.o(.text)
    CPU_CntTrailZeros16                      0x08003381   Thumb Code    10  cpu_core.o(.text)
    CPU_CntTrailZeros32                      0x0800338b   Thumb Code    10  cpu_core.o(.text)
    CPU_CntTrailZeros64                      0x08003395   Thumb Code    36  cpu_core.o(.text)
    CPU_IntDis                               0x080033c5   Thumb Code     0  cpu_a.o(.text)
    CPU_IntEn                                0x080033c9   Thumb Code     0  cpu_a.o(.text)
    CPU_SR_Save                              0x080033cd   Thumb Code     0  cpu_a.o(.text)
    CPU_SR_Restore                           0x080033d5   Thumb Code     0  cpu_a.o(.text)
    CPU_WaitForInt                           0x080033db   Thumb Code     0  cpu_a.o(.text)
    CPU_WaitForExcept                        0x080033df   Thumb Code     0  cpu_a.o(.text)
    CPU_CntLeadZeros                         0x080033e3   Thumb Code     0  cpu_a.o(.text)
    CPU_CntTrailZeros                        0x080033e9   Thumb Code     0  cpu_a.o(.text)
    CPU_RevBits                              0x080033f3   Thumb Code     0  cpu_a.o(.text)
    ASCII_IsAlpha                            0x080033f9   Thumb Code    22  lib_ascii.o(.text)
    ASCII_IsAlphaNum                         0x0800340f   Thumb Code    28  lib_ascii.o(.text)
    ASCII_IsLower                            0x0800342b   Thumb Code    14  lib_ascii.o(.text)
    ASCII_IsUpper                            0x08003439   Thumb Code    14  lib_ascii.o(.text)
    ASCII_IsDig                              0x08003447   Thumb Code    14  lib_ascii.o(.text)
    ASCII_IsDigOct                           0x08003455   Thumb Code    14  lib_ascii.o(.text)
    ASCII_IsDigHex                           0x08003463   Thumb Code    28  lib_ascii.o(.text)
    ASCII_IsBlank                            0x0800347f   Thumb Code    16  lib_ascii.o(.text)
    ASCII_IsSpace                            0x0800348f   Thumb Code    32  lib_ascii.o(.text)
    ASCII_IsPrint                            0x080034af   Thumb Code    14  lib_ascii.o(.text)
    ASCII_IsGraph                            0x080034bd   Thumb Code    14  lib_ascii.o(.text)
    ASCII_IsPunct                            0x080034cb   Thumb Code    58  lib_ascii.o(.text)
    ASCII_IsCtrl                             0x08003505   Thumb Code    22  lib_ascii.o(.text)
    ASCII_ToLower                            0x0800351b   Thumb Code    14  lib_ascii.o(.text)
    ASCII_ToUpper                            0x08003529   Thumb Code    14  lib_ascii.o(.text)
    ASCII_Cmp                                0x08003537   Thumb Code    28  lib_ascii.o(.text)
    Mem_Init                                 0x08003555   Thumb Code    54  lib_mem.o(.text)
    Mem_Set                                  0x0800358b   Thumb Code    62  lib_mem.o(.text)
    Mem_Clr                                  0x080035c9   Thumb Code     6  lib_mem.o(.text)
    Mem_Move                                 0x080035cf   Thumb Code   116  lib_mem.o(.text)
    Mem_Cmp                                  0x08003643   Thumb Code   126  lib_mem.o(.text)
    Mem_HeapAlloc                            0x08003719   Thumb Code   114  lib_mem.o(.text)
    Mem_SegGetSizeRem                        0x0800378b   Thumb Code    60  lib_mem.o(.text)
    Mem_HeapGetSizeRem                       0x080037c7   Thumb Code     8  lib_mem.o(.text)
    Mem_PoolClr                              0x080037cf   Thumb Code    56  lib_mem.o(.text)
    Mem_PoolCreate                           0x08003807   Thumb Code   582  lib_mem.o(.text)
    Mem_PoolBlkGetNbrAvail                   0x08003a4d   Thumb Code    26  lib_mem.o(.text)
    Mem_PoolBlkGet                           0x08003a67   Thumb Code    68  lib_mem.o(.text)
    Mem_PoolBlkGetUsedAtIx                   0x08003aab   Thumb Code    62  lib_mem.o(.text)
    Mem_PoolBlkFree                          0x08003ae9   Thumb Code   100  lib_mem.o(.text)
    Mem_PoolBlkIxGet                         0x08003b4d   Thumb Code   104  lib_mem.o(.text)
    Str_Len_N                                0x08003bbd   Thumb Code    22  lib_str.o(.text)
    Str_Len                                  0x08003bd3   Thumb Code     6  lib_str.o(.text)
    Str_Copy_N                               0x08003bd9   Thumb Code    48  lib_str.o(.text)
    Str_Copy                                 0x08003c09   Thumb Code     6  lib_str.o(.text)
    Str_Cat_N                                0x08003c0f   Thumb Code    58  lib_str.o(.text)
    Str_Cat                                  0x08003c49   Thumb Code     6  lib_str.o(.text)
    Str_Cmp_N                                0x08003c4f   Thumb Code    86  lib_str.o(.text)
    Str_Cmp                                  0x08003ca5   Thumb Code     6  lib_str.o(.text)
    Str_CmpIgnoreCase_N                      0x08003cab   Thumb Code   146  lib_str.o(.text)
    Str_CmpIgnoreCase                        0x08003d3d   Thumb Code     6  lib_str.o(.text)
    Str_Char_N                               0x08003d43   Thumb Code    46  lib_str.o(.text)
    Str_Char                                 0x08003d71   Thumb Code     8  lib_str.o(.text)
    Str_Char_Last_N                          0x08003d79   Thumb Code    44  lib_str.o(.text)
    Str_Char_Last                            0x08003da5   Thumb Code     8  lib_str.o(.text)
    Str_Char_Replace_N                       0x08003dad   Thumb Code    40  lib_str.o(.text)
    Str_Char_Replace                         0x08003dd5   Thumb Code     6  lib_str.o(.text)
    Str_Str_N                                0x08003ddb   Thumb Code   120  lib_str.o(.text)
    Str_Str                                  0x08003e53   Thumb Code     6  lib_str.o(.text)
    Str_FmtNbr_Int32U                        0x08003fb1   Thumb Code    24  lib_str.o(.text)
    Str_FmtNbr_Int32S                        0x08003fc9   Thumb Code    40  lib_str.o(.text)
    Str_ParseNbr_Int32U                      0x0800412b   Thumb Code    12  lib_str.o(.text)
    Str_ParseNbr_Int32S                      0x08004137   Thumb Code    42  lib_str.o(.text)
    Mem_Copy                                 0x08004165   Thumb Code     0  lib_mem_a.o(.text)
    OSCfg_Init                               0x08004385   Thumb Code     2  os_cfg_app.o(.text)
    OS_IdleTask                              0x08004389   Thumb Code    30  os_core.o(.text)
    OS_IdleTaskInit                          0x080043a7   Thumb Code    62  os_core.o(.text)
    OS_RdyListInit                           0x080043e5   Thumb Code    30  os_core.o(.text)
    OSInit                                   0x08004403   Thumb Code   290  os_core.o(.text)
    OSIntEnter                               0x08004525   Thumb Code    22  os_core.o(.text)
    OSIntExit                                0x0800453b   Thumb Code   100  os_core.o(.text)
    OSSched                                  0x0800459f   Thumb Code    86  os_core.o(.text)
    OS_SchedLockTimeMeasStart                0x080045f5   Thumb Code    20  os_core.o(.text)
    OSSchedLock                              0x08004609   Thumb Code    72  os_core.o(.text)
    OS_SchedLockTimeMeasStop                 0x08004651   Thumb Code    42  os_core.o(.text)
    OSSchedUnlock                            0x0800467b   Thumb Code    92  os_core.o(.text)
    OSSchedRoundRobinCfg                     0x080046d7   Thumb Code    60  os_core.o(.text)
    OS_RdyListMoveHeadToTail                 0x08004713   Thumb Code    52  os_core.o(.text)
    OSSchedRoundRobinYield                   0x08004747   Thumb Code   264  os_core.o(.text)
    OSStart                                  0x0800484f   Thumb Code    62  os_core.o(.text)
    OSVersion                                0x0800488d   Thumb Code    10  os_core.o(.text)
    OS_PendDbgNameAdd                        0x08004897   Thumb Code    46  os_core.o(.text)
    OS_PendListInsertPrio                    0x080048c5   Thumb Code    90  os_core.o(.text)
    OS_PendDataInit                          0x0800491f   Thumb Code    48  os_core.o(.text)
    OS_RdyListRemove                         0x0800494f   Thumb Code    78  os_core.o(.text)
    OS_TaskBlock                             0x0800499d   Thumb Code    42  os_core.o(.text)
    OS_Pend                                  0x080049c7   Thumb Code    72  os_core.o(.text)
    OS_PendListRemove1                       0x08004a0f   Thumb Code    54  os_core.o(.text)
    OS_PendListRemove                        0x08004a45   Thumb Code    38  os_core.o(.text)
    OS_PendAbort1                            0x08004a6b   Thumb Code    32  os_core.o(.text)
    OS_RdyListInsertHead                     0x08004a8b   Thumb Code    52  os_core.o(.text)
    OS_RdyListInsertTail                     0x08004abf   Thumb Code    48  os_core.o(.text)
    OS_RdyListInsert                         0x08004aef   Thumb Code    38  os_core.o(.text)
    OS_TaskRdy                               0x08004b15   Thumb Code    26  os_core.o(.text)
    OS_PendAbort                             0x08004b2f   Thumb Code   134  os_core.o(.text)
    OS_PendDbgNameRemove                     0x08004bb5   Thumb Code    22  os_core.o(.text)
    OS_PendListChangePrio                    0x08004bcb   Thumb Code   112  os_core.o(.text)
    OS_PendListInit                          0x08004c3b   Thumb Code    10  os_core.o(.text)
    OS_PendListInsertHead                    0x08004c45   Thumb Code    32  os_core.o(.text)
    OS_PendObjDel1                           0x08004c65   Thumb Code    32  os_core.o(.text)
    OS_PendObjDel                            0x08004c85   Thumb Code   126  os_core.o(.text)
    OS_Post1                                 0x08004d03   Thumb Code    38  os_core.o(.text)
    OS_Post                                  0x08004d29   Thumb Code   152  os_core.o(.text)
    OS_Sched0                                0x08004dc1   Thumb Code    50  os_core.o(.text)
    OS_SchedRoundRobin                       0x08004df3   Thumb Code    80  os_core.o(.text)
    OS_Dbg_Init                              0x08004e65   Thumb Code     2  os_dbg.o(.text)
    OS_FlagDbgListAdd                        0x08004e69   Thumb Code    26  os_flag.o(.text)
    OSFlagCreate                             0x08004e83   Thumb Code   104  os_flag.o(.text)
    OS_FlagClr                               0x08004eeb   Thumb Code    16  os_flag.o(.text)
    OS_FlagDbgListRemove                     0x08004efb   Thumb Code    36  os_flag.o(.text)
    OSFlagDel                                0x08004f1f   Thumb Code   344  os_flag.o(.text)
    OS_FlagBlock                             0x08005077   Thumb Code    28  os_flag.o(.text)
    OSFlagPend                               0x08005093   Thumb Code   584  os_flag.o(.text)
    OSFlagPendAbort                          0x080052db   Thumb Code   196  os_flag.o(.text)
    OSFlagPendGetFlagsRdy                    0x0800539f   Thumb Code    44  os_flag.o(.text)
    OS_FlagTaskRdy                           0x080053cb   Thumb Code    68  os_flag.o(.text)
    OS_FlagPost                              0x0800540f   Thumb Code   294  os_flag.o(.text)
    OSFlagPost                               0x08005535   Thumb Code   114  os_flag.o(.text)
    OS_FlagInit                              0x080055a7   Thumb Code    14  os_flag.o(.text)
    OS_IntQPost                              0x080055d1   Thumb Code   138  os_int.o(.text)
    OS_IntQRePost                            0x0800565b   Thumb Code   224  os_int.o(.text)
    OS_IntQTask                              0x0800573b   Thumb Code   106  os_int.o(.text)
    OS_IntQTaskInit                          0x080057a5   Thumb Code   194  os_int.o(.text)
    OS_MemDbgListAdd                         0x080058f9   Thumb Code    22  os_mem.o(.text)
    OSMemCreate                              0x0800590f   Thumb Code   186  os_mem.o(.text)
    OSMemGet                                 0x080059c9   Thumb Code    60  os_mem.o(.text)
    OSMemPut                                 0x08005a05   Thumb Code    70  os_mem.o(.text)
    OS_MemInit                               0x08005a4b   Thumb Code    14  os_mem.o(.text)
    OS_MsgPoolCreate                         0x08005a6d   Thumb Code    48  os_msg.o(.text)
    OS_MsgPoolInit                           0x08005a9d   Thumb Code    58  os_msg.o(.text)
    OS_MsgQFreeAll                           0x08005ad7   Thumb Code    48  os_msg.o(.text)
    OS_MsgQInit                              0x08005b07   Thumb Code    14  os_msg.o(.text)
    OS_MsgQGet                               0x08005b15   Thumb Code    82  os_msg.o(.text)
    OS_MsgQPut                               0x08005b67   Thumb Code   128  os_msg.o(.text)
    OS_MutexDbgListAdd                       0x08005bf5   Thumb Code    26  os_mutex.o(.text)
    OSMutexCreate                            0x08005c0f   Thumb Code   112  os_mutex.o(.text)
    OS_MutexClr                              0x08005c7f   Thumb Code    24  os_mutex.o(.text)
    OS_MutexDbgListRemove                    0x08005c97   Thumb Code    36  os_mutex.o(.text)
    OSMutexDel                               0x08005cbb   Thumb Code   470  os_mutex.o(.text)
    OSMutexPend                              0x08005e91   Thumb Code   490  os_mutex.o(.text)
    OSMutexPendAbort                         0x0800607b   Thumb Code   196  os_mutex.o(.text)
    OSMutexPost                              0x0800613f   Thumb Code   368  os_mutex.o(.text)
    OS_MutexInit                             0x080062af   Thumb Code    14  os_mutex.o(.text)
    OS_PrioInit                              0x080062dd   Thumb Code    18  os_prio.o(.text)
    OS_PrioGetHighest                        0x080062ef   Thumb Code    32  os_prio.o(.text)
    OS_PrioInsert                            0x0800630f   Thumb Code    28  os_prio.o(.text)
    OS_PrioRemove                            0x0800632b   Thumb Code    28  os_prio.o(.text)
    OS_QDbgListAdd                           0x0800634d   Thumb Code    26  os_q.o(.text)
    OSQCreate                                0x08006367   Thumb Code   118  os_q.o(.text)
    OS_QClr                                  0x080063dd   Thumb Code    40  os_q.o(.text)
    OS_QDbgListRemove                        0x08006405   Thumb Code    36  os_q.o(.text)
    OSQDel                                   0x08006429   Thumb Code   256  os_q.o(.text)
    OSQFlush                                 0x08006529   Thumb Code   116  os_q.o(.text)
    OSQPend                                  0x0800659d   Thumb Code   344  os_q.o(.text)
    OSQPendAbort                             0x080066f5   Thumb Code   236  os_q.o(.text)
    OS_QPost                                 0x080067e1   Thumb Code   194  os_q.o(.text)
    OSQPost                                  0x080068a3   Thumb Code   146  os_q.o(.text)
    OS_QInit                                 0x08006935   Thumb Code    14  os_q.o(.text)
    OS_SemDbgListAdd                         0x0800695d   Thumb Code    26  os_sem.o(.text)
    OSSemCreate                              0x08006977   Thumb Code   104  os_sem.o(.text)
    OS_SemClr                                0x080069df   Thumb Code    22  os_sem.o(.text)
    OS_SemDbgListRemove                      0x080069f5   Thumb Code    36  os_sem.o(.text)
    OSSemDel                                 0x08006a19   Thumb Code   256  os_sem.o(.text)
    OSSemPend                                0x08006b19   Thumb Code   298  os_sem.o(.text)
    OSSemPendAbort                           0x08006c43   Thumb Code   196  os_sem.o(.text)
    OS_SemPost                               0x08006d07   Thumb Code   202  os_sem.o(.text)
    OSSemPost                                0x08006dd1   Thumb Code   114  os_sem.o(.text)
    OSSemSet                                 0x08006e43   Thumb Code    78  os_sem.o(.text)
    OS_SemInit                               0x08006e91   Thumb Code    14  os_sem.o(.text)
    OSStatReset                              0x08006eb1   Thumb Code   150  os_stat.o(.text)
    OSStatTaskCPUUsageInit                   0x08006f47   Thumb Code   126  os_stat.o(.text)
    OS_StatTask                              0x08006fc5   Thumb Code   482  os_stat.o(.text)
    OS_StatTaskInit                          0x080071a7   Thumb Code   120  os_stat.o(.text)
    OSTaskChangePrio                         0x080072b1   Thumb Code   240  os_task.o(.text)
    OS_TaskDbgListAdd                        0x080073a1   Thumb Code    30  os_task.o(.text)
    OS_TaskInitTCB                           0x080073bf   Thumb Code   180  os_task.o(.text)
    OSTaskCreate                             0x08007473   Thumb Code   400  os_task.o(.text)
    OS_TaskDbgListRemove                     0x08007603   Thumb Code    50  os_task.o(.text)
    OSTaskDel                                0x08007635   Thumb Code   310  os_task.o(.text)
    OSTaskQFlush                             0x0800776b   Thumb Code   106  os_task.o(.text)
    OSTaskQPend                              0x080077d5   Thumb Code   328  os_task.o(.text)
    OSTaskQPendAbort                         0x0800791d   Thumb Code   140  os_task.o(.text)
    OS_TaskQPost                             0x080079a9   Thumb Code   222  os_task.o(.text)
    OSTaskQPost                              0x08007a87   Thumb Code    96  os_task.o(.text)
    OSTaskRegGet                             0x08007ae7   Thumb Code    66  os_task.o(.text)
    OSTaskRegGetID                           0x08007b29   Thumb Code    42  os_task.o(.text)
    OSTaskRegSet                             0x08007b53   Thumb Code    40  os_task.o(.text)
    OS_TaskResume                            0x08007b7b   Thumb Code   184  os_task.o(.text)
    OSTaskResume                             0x08007c33   Thumb Code    78  os_task.o(.text)
    OSTaskSemPend                            0x08007c81   Thumb Code   300  os_task.o(.text)
    OSTaskSemPendAbort                       0x08007dad   Thumb Code   148  os_task.o(.text)
    OS_TaskSemPost                           0x08007e41   Thumb Code   284  os_task.o(.text)
    OSTaskSemPost                            0x08007f5d   Thumb Code    78  os_task.o(.text)
    OSTaskSemSet                             0x08007fab   Thumb Code    52  os_task.o(.text)
    OSTaskStkChk                             0x08007fdf   Thumb Code   136  os_task.o(.text)
    OS_TaskSuspend                           0x08008067   Thumb Code   158  os_task.o(.text)
    OSTaskSuspend                            0x08008105   Thumb Code    64  os_task.o(.text)
    OSTaskTimeQuantaSet                      0x08008145   Thumb Code    68  os_task.o(.text)
    OS_TaskInit                              0x08008189   Thumb Code    18  os_task.o(.text)
    OS_TaskReturn                            0x0800819b   Thumb Code    20  os_task.o(.text)
    OS_TickListRemove                        0x080081dd   Thumb Code    54  os_tick.o(.text)
    OS_TickListUpdate                        0x08008213   Thumb Code   304  os_tick.o(.text)
    OS_TickTask                              0x08008343   Thumb Code    36  os_tick.o(.text)
    OS_TickListInit                          0x08008367   Thumb Code    34  os_tick.o(.text)
    OS_TickTaskInit                          0x08008389   Thumb Code   114  os_tick.o(.text)
    OS_TickListInsert                        0x080083fb   Thumb Code   202  os_tick.o(.text)
    OS_TickListResetPeak                     0x080084c5   Thumb Code    30  os_tick.o(.text)
    OSTimeDly                                0x0800852d   Thumb Code   158  os_time.o(.text)
    OSTimeDlyHMSM                            0x080085cb   Thumb Code   308  os_time.o(.text)
    OSTimeDlyResume                          0x080086ff   Thumb Code   184  os_time.o(.text)
    OSTimeGet                                0x080087b7   Thumb Code    24  os_time.o(.text)
    OSTimeSet                                0x080087cf   Thumb Code    24  os_time.o(.text)
    OSTimeTick                               0x080087e7   Thumb Code    52  os_time.o(.text)
    OS_TmrDbgListAdd                         0x0800883d   Thumb Code    22  os_tmr.o(.text)
    OSTmrCreate                              0x08008853   Thumb Code   168  os_tmr.o(.text)
    OS_TmrClr                                0x080088fb   Thumb Code    34  os_tmr.o(.text)
    OS_TmrUnlink                             0x0800891d   Thumb Code    68  os_tmr.o(.text)
    OS_TmrDbgListRemove                      0x08008961   Thumb Code    36  os_tmr.o(.text)
    OSTmrDel                                 0x08008985   Thumb Code   134  os_tmr.o(.text)
    OSTmrRemainGet                           0x08008a0b   Thumb Code   140  os_tmr.o(.text)
    OS_TmrLink                               0x08008a97   Thumb Code   140  os_tmr.o(.text)
    OSTmrStart                               0x08008b23   Thumb Code   122  os_tmr.o(.text)
    OSTmrStateGet                            0x08008b9d   Thumb Code    86  os_tmr.o(.text)
    OSTmrStop                                0x08008bf3   Thumb Code   226  os_tmr.o(.text)
    OS_TmrTask                               0x08008cd5   Thumb Code   164  os_tmr.o(.text)
    OS_TmrInit                               0x08008d79   Thumb Code   174  os_tmr.o(.text)
    OS_TmrResetPeak                          0x08008e27   Thumb Code    30  os_tmr.o(.text)
    OSIdleTaskHook                           0x08008e99   Thumb Code    12  os_cpu_c.o(.text)
    OSInitHook                               0x08008ea5   Thumb Code    22  os_cpu_c.o(.text)
    OSStatTaskHook                           0x08008ebb   Thumb Code    12  os_cpu_c.o(.text)
    OSTaskCreateHook                         0x08008ec7   Thumb Code    12  os_cpu_c.o(.text)
    OSTaskDelHook                            0x08008ed3   Thumb Code    12  os_cpu_c.o(.text)
    OSTaskReturnHook                         0x08008edf   Thumb Code    12  os_cpu_c.o(.text)
    OSTaskStkInit                            0x08008eeb   Thumb Code    96  os_cpu_c.o(.text)
    OSTaskSwHook                             0x08008f4b   Thumb Code    72  os_cpu_c.o(.text)
    OSTimeTickHook                           0x08008f93   Thumb Code    12  os_cpu_c.o(.text)
    OS_CPU_SysTickHandler                    0x08008f9f   Thumb Code    30  os_cpu_c.o(.text)
    OS_CPU_SysTickInit                       0x08008fbd   Thumb Code    36  os_cpu_c.o(.text)
    __use_no_semihosting                     0x08009021   Thumb Code     2  use_no_semi_2.o(.text)
    __aeabi_uldivmod                         0x08009023   Thumb Code     0  lludivv7m.o(.text)
    _ll_udiv                                 0x08009023   Thumb Code   238  lludivv7m.o(.text)
    vsprintf                                 0x08009111   Thumb Code    32  vsprintf.o(.text)
    __2printf                                0x08009135   Thumb Code    20  __2printf.o(.text)
    __2sprintf                               0x0800914d   Thumb Code    38  __2sprintf.o(.text)
    _printf_pre_padding                      0x08009179   Thumb Code    44  _printf_pad.o(.text)
    _printf_post_padding                     0x080091a5   Thumb Code    34  _printf_pad.o(.text)
    _printf_str                              0x080091c7   Thumb Code    82  _printf_str.o(.text)
    _printf_int_dec                          0x08009219   Thumb Code   104  _printf_dec.o(.text)
    _printf_longlong_hex                     0x08009291   Thumb Code    86  _printf_hex_int_ll_ptr.o(.text)
    _printf_int_hex                          0x080092e7   Thumb Code    28  _printf_hex_int_ll_ptr.o(.text)
    _printf_ll_hex                           0x08009303   Thumb Code    12  _printf_hex_int_ll_ptr.o(.text)
    _printf_hex_ptr                          0x0800930f   Thumb Code    18  _printf_hex_int_ll_ptr.o(.text)
    __printf                                 0x08009325   Thumb Code   388  __printf_flags_ss_wp.o(.text)
    __0sscanf                                0x080094ad   Thumb Code    52  __0sscanf.o(.text)
    _scanf_int                               0x080094e9   Thumb Code   332  _scanf_int.o(.text)
    strtok                                   0x08009635   Thumb Code     6  strtok.o(.text)
    strstr                                   0x08009641   Thumb Code    36  strstr.o(.text)
    strcpy                                   0x08009665   Thumb Code    72  strcpy.o(.text)
    strcat                                   0x080096ad   Thumb Code    24  strcat.o(.text)
    __aeabi_memcpy                           0x080096c5   Thumb Code     0  rt_memcpy_v6.o(.text)
    __rt_memcpy                              0x080096c5   Thumb Code   138  rt_memcpy_v6.o(.text)
    _memcpy_lastbytes                        0x0800972b   Thumb Code     0  rt_memcpy_v6.o(.text)
    __aeabi_memcpy4                          0x0800974f   Thumb Code     0  rt_memcpy_w.o(.text)
    __aeabi_memcpy8                          0x0800974f   Thumb Code     0  rt_memcpy_w.o(.text)
    __rt_memcpy_w                            0x0800974f   Thumb Code   100  rt_memcpy_w.o(.text)
    _memcpy_lastbytes_aligned                0x08009797   Thumb Code     0  rt_memcpy_w.o(.text)
    __aeabi_memclr                           0x080097b3   Thumb Code     0  rt_memclr.o(.text)
    __rt_memclr                              0x080097b3   Thumb Code    68  rt_memclr.o(.text)
    _memset                                  0x080097b7   Thumb Code     0  rt_memclr.o(.text)
    __aeabi_memclr4                          0x080097f7   Thumb Code     0  rt_memclr_w.o(.text)
    __aeabi_memclr8                          0x080097f7   Thumb Code     0  rt_memclr_w.o(.text)
    __rt_memclr_w                            0x080097f7   Thumb Code    78  rt_memclr_w.o(.text)
    _memset_w                                0x080097fb   Thumb Code     0  rt_memclr_w.o(.text)
    strcmp                                   0x08009845   Thumb Code   128  strcmpv7m.o(.text)
    __use_two_region_memory                  0x080098c5   Thumb Code     2  heapauxi.o(.text)
    __rt_heap_escrow$2region                 0x080098c7   Thumb Code     2  heapauxi.o(.text)
    __rt_heap_expand$2region                 0x080098c9   Thumb Code     2  heapauxi.o(.text)
    __I$use$semihosting                      0x080098cb   Thumb Code     0  use_no_semi.o(.text)
    __use_no_semihosting_swi                 0x080098cb   Thumb Code     2  use_no_semi.o(.text)
    __read_errno                             0x080098cd   Thumb Code    10  _rserrno.o(.text)
    __set_errno                              0x080098d7   Thumb Code    12  _rserrno.o(.text)
    _printf_truncate_signed                  0x080098e3   Thumb Code    18  _printf_truncate.o(.text)
    _printf_truncate_unsigned                0x080098f5   Thumb Code    18  _printf_truncate.o(.text)
    _printf_int_common                       0x08009907   Thumb Code   178  _printf_intcommon.o(.text)
    _printf_charcount                        0x080099b9   Thumb Code    40  _printf_charcount.o(.text)
    _printf_char_common                      0x080099eb   Thumb Code    32  _printf_char_common.o(.text)
    _sputc                                   0x08009a11   Thumb Code    10  _sputc.o(.text)
    _printf_cs_common                        0x08009a1b   Thumb Code    20  _printf_char.o(.text)
    _printf_char                             0x08009a2f   Thumb Code    16  _printf_char.o(.text)
    _printf_string                           0x08009a3f   Thumb Code     8  _printf_char.o(.text)
    _printf_char_file                        0x08009a49   Thumb Code    32  _printf_char_file.o(.text)
    _printf_wctomb                           0x08009a6d   Thumb Code   182  _printf_wctomb.o(.text)
    _printf_longlong_dec                     0x08009b29   Thumb Code   108  _printf_longlong_dec.o(.text)
    _printf_longlong_oct                     0x08009ba5   Thumb Code    66  _printf_oct_int_ll.o(.text)
    _printf_int_oct                          0x08009be7   Thumb Code    24  _printf_oct_int_ll.o(.text)
    _printf_ll_oct                           0x08009bff   Thumb Code    12  _printf_oct_int_ll.o(.text)
    _chval                                   0x08009c15   Thumb Code    28  _chval.o(.text)
    __vfscanf_char                           0x08009c3d   Thumb Code    24  scanf_char.o(.text)
    _sgetc                                   0x08009c5d   Thumb Code    30  _sgetc.o(.text)
    _sbackspace                              0x08009c7b   Thumb Code    34  _sgetc.o(.text)
    __strtok_internal                        0x08009c9d   Thumb Code    64  strtok_int.o(.text)
    __aeabi_errno_addr                       0x08009ce1   Thumb Code     8  rt_errno_addr_intlibspace.o(.text)
    __errno$intlibspace                      0x08009ce1   Thumb Code     0  rt_errno_addr_intlibspace.o(.text)
    __rt_errno_addr$intlibspace              0x08009ce1   Thumb Code     0  rt_errno_addr_intlibspace.o(.text)
    _ll_udiv10                               0x08009ce9   Thumb Code   138  lludiv10.o(.text)
    isspace                                  0x08009d73   Thumb Code    18  isspace.o(.text)
    __lib_sel_fp_printf                      0x08009d85   Thumb Code     2  _printf_fp_dec.o(.text)
    _printf_fp_dec_real                      0x08009f37   Thumb Code   620  _printf_fp_dec.o(.text)
    _printf_fp_hex_real                      0x0800a1a5   Thumb Code   756  _printf_fp_hex.o(.text)
    _printf_lcs_common                       0x0800a4a1   Thumb Code    20  _printf_wchar.o(.text)
    _printf_wchar                            0x0800a4b5   Thumb Code    16  _printf_wchar.o(.text)
    _printf_wstring                          0x0800a4c5   Thumb Code     8  _printf_wchar.o(.text)
    __vfscanf                                0x0800a4cd   Thumb Code   878  _scanf.o(.text)
    ferror                                   0x0800a841   Thumb Code     8  ferror.o(.text)
    _wcrtomb                                 0x0800a849   Thumb Code    64  _wcrtomb.o(.text)
    strcspn                                  0x0800a889   Thumb Code    32  strcspn.o(.text)
    strspn                                   0x0800a8a9   Thumb Code    28  strspn.o(.text)
    __user_libspace                          0x0800a8c5   Thumb Code     8  libspace.o(.text)
    __user_perproc_libspace                  0x0800a8c5   Thumb Code     0  libspace.o(.text)
    __user_perthread_libspace                0x0800a8c5   Thumb Code     0  libspace.o(.text)
    __user_setup_stackheap                   0x0800a8cd   Thumb Code    74  sys_stackheap_outer.o(.text)
    __rt_ctype_table                         0x0800a919   Thumb Code    16  rt_ctype_table.o(.text)
    __rt_locale                              0x0800a929   Thumb Code     8  rt_locale_intlibspace.o(.text)
    _printf_fp_infnan                        0x0800a931   Thumb Code   112  _printf_fp_infnan.o(.text)
    _btod_etento                             0x0800a9b1   Thumb Code   224  bigflt0.o(.text)
    exit                                     0x0800aa95   Thumb Code    18  exit.o(.text)
    _btod_d2e                                0x0800aaa7   Thumb Code    62  btod.o(CL$$btod_d2e)
    _d2e_denorm_low                          0x0800aae5   Thumb Code    70  btod.o(CL$$btod_d2e_denorm_low)
    _d2e_norm_op1                            0x0800ab2b   Thumb Code    96  btod.o(CL$$btod_d2e_norm_op1)
    __btod_div_common                        0x0800ab8b   Thumb Code   696  btod.o(CL$$btod_div_common)
    _e2e                                     0x0800aec3   Thumb Code   220  btod.o(CL$$btod_e2e)
    _btod_ediv                               0x0800af9f   Thumb Code    42  btod.o(CL$$btod_ediv)
    _btod_emul                               0x0800afc9   Thumb Code    42  btod.o(CL$$btod_emul)
    __btod_mult_common                       0x0800aff3   Thumb Code   580  btod.o(CL$$btod_mult_common)
    OSStartHighRdy                           0x0800b239   Thumb Code     0  os_cpu_a.o(CODE)
    OSCtxSw                                  0x0800b25b   Thumb Code     0  os_cpu_a.o(CODE)
    OSIntCtxSw                               0x0800b265   Thumb Code     0  os_cpu_a.o(CODE)
    PendSV_Handler                           0x0800b26f   Thumb Code     0  os_cpu_a.o(CODE)
    __ARM_fpclassify                         0x0800b2d1   Thumb Code    40  fpclassify.o(i.__ARM_fpclassify)
    __ieee754_rem_pio2                       0x0800b2f9   Thumb Code   828  rred.o(i.__ieee754_rem_pio2)
    __kernel_cos                             0x0800b681   Thumb Code   230  cos_i.o(i.__kernel_cos)
    __kernel_poly                            0x0800b77d   Thumb Code   170  poly.o(i.__kernel_poly)
    __kernel_sin                             0x0800b829   Thumb Code   224  sin_i.o(i.__kernel_sin)
    __mathlib_dbl_divzero                    0x0800b915   Thumb Code    12  dunder.o(i.__mathlib_dbl_divzero)
    __mathlib_dbl_infnan                     0x0800b925   Thumb Code     6  dunder.o(i.__mathlib_dbl_infnan)
    __mathlib_dbl_infnan2                    0x0800b92b   Thumb Code     4  dunder.o(i.__mathlib_dbl_infnan2)
    __mathlib_dbl_invalid                    0x0800b92f   Thumb Code    12  dunder.o(i.__mathlib_dbl_invalid)
    __mathlib_dbl_overflow                   0x0800b93b   Thumb Code    14  dunder.o(i.__mathlib_dbl_overflow)
    __mathlib_dbl_underflow                  0x0800b949   Thumb Code    10  dunder.o(i.__mathlib_dbl_underflow)
    _is_digit                                0x0800b959   Thumb Code    14  __printf_wp.o(i._is_digit)
    asin                                     0x0800b969   Thumb Code   572  asin.o(i.asin)
    atan                                     0x0800bbd9   Thumb Code   474  atan.o(i.atan)
    atan2                                    0x0800bdf9   Thumb Code   346  atan2.o(i.atan2)
    cos                                      0x0800bf79   Thumb Code   148  cos.o(i.cos)
    pow                                      0x0800c015   Thumb Code  2512  pow.o(i.pow)
    sin                                      0x0800c9ed   Thumb Code   150  sin.o(i.sin)
    sqrt                                     0x0800ca8d   Thumb Code    76  sqrt.o(i.sqrt)
    _get_lc_numeric                          0x0800cad9   Thumb Code    44  lc_numeric_c.o(locale$$code)
    _get_lc_ctype                            0x0800cb05   Thumb Code    44  lc_ctype_c.o(locale$$code)
    __aeabi_d2f                              0x0800cb31   Thumb Code     0  d2f.o(x$fpl$d2f)
    _d2f                                     0x0800cb31   Thumb Code    98  d2f.o(x$fpl$d2f)
    __aeabi_dadd                             0x0800cb95   Thumb Code     0  daddsub_clz.o(x$fpl$dadd)
    _dadd                                    0x0800cb95   Thumb Code   332  daddsub_clz.o(x$fpl$dadd)
    __fpl_dcheck_NaN1                        0x0800cce5   Thumb Code    10  dcheck1.o(x$fpl$dcheck1)
    __fpl_dcmp_Inf                           0x0800ccf5   Thumb Code    24  dcmpi.o(x$fpl$dcmpinf)
    __aeabi_ddiv                             0x0800cd0d   Thumb Code     0  ddiv.o(x$fpl$ddiv)
    _ddiv                                    0x0800cd0d   Thumb Code   552  ddiv.o(x$fpl$ddiv)
    __aeabi_d2iz                             0x0800cfbd   Thumb Code     0  dfix.o(x$fpl$dfix)
    _dfix                                    0x0800cfbd   Thumb Code    94  dfix.o(x$fpl$dfix)
    __aeabi_d2uiz                            0x0800d01d   Thumb Code     0  dfixu.o(x$fpl$dfixu)
    _dfixu                                   0x0800d01d   Thumb Code    90  dfixu.o(x$fpl$dfixu)
    __aeabi_i2d                              0x0800d077   Thumb Code     0  dflt_clz.o(x$fpl$dflt)
    _dflt                                    0x0800d077   Thumb Code    46  dflt_clz.o(x$fpl$dflt)
    __aeabi_ui2d                             0x0800d0a5   Thumb Code     0  dflt_clz.o(x$fpl$dfltu)
    _dfltu                                   0x0800d0a5   Thumb Code    38  dflt_clz.o(x$fpl$dfltu)
    __aeabi_cdcmple                          0x0800d0cd   Thumb Code     0  dleqf.o(x$fpl$dleqf)
    _dcmple                                  0x0800d0cd   Thumb Code   120  dleqf.o(x$fpl$dleqf)
    __fpl_dcmple_InfNaN                      0x0800d12f   Thumb Code     0  dleqf.o(x$fpl$dleqf)
    __aeabi_dmul                             0x0800d145   Thumb Code     0  dmul.o(x$fpl$dmul)
    _dmul                                    0x0800d145   Thumb Code   332  dmul.o(x$fpl$dmul)
    __fpl_dnaninf                            0x0800d299   Thumb Code   156  dnaninf.o(x$fpl$dnaninf)
    __fpl_dretinf                            0x0800d335   Thumb Code    12  dretinf.o(x$fpl$dretinf)
    __aeabi_cdrcmple                         0x0800d341   Thumb Code     0  drleqf.o(x$fpl$drleqf)
    _drcmple                                 0x0800d341   Thumb Code   108  drleqf.o(x$fpl$drleqf)
    __aeabi_drsub                            0x0800d3ad   Thumb Code     0  daddsub_clz.o(x$fpl$drsb)
    _drsb                                    0x0800d3ad   Thumb Code    22  daddsub_clz.o(x$fpl$drsb)
    _dsqrt                                   0x0800d3c5   Thumb Code   456  dsqrt_noumaal.o(x$fpl$dsqrt)
    __aeabi_dsub                             0x0800d591   Thumb Code     0  daddsub_clz.o(x$fpl$dsub)
    _dsub                                    0x0800d591   Thumb Code   464  daddsub_clz.o(x$fpl$dsub)
    __aeabi_f2d                              0x0800d765   Thumb Code     0  f2d.o(x$fpl$f2d)
    _f2d                                     0x0800d765   Thumb Code    86  f2d.o(x$fpl$f2d)
    __aeabi_fadd                             0x0800d7bd   Thumb Code     0  faddsub_clz.o(x$fpl$fadd)
    _fadd                                    0x0800d7bd   Thumb Code   196  faddsub_clz.o(x$fpl$fadd)
    __aeabi_fdiv                             0x0800d881   Thumb Code     0  fdiv.o(x$fpl$fdiv)
    _fdiv                                    0x0800d881   Thumb Code   384  fdiv.o(x$fpl$fdiv)
    __aeabi_f2iz                             0x0800da05   Thumb Code     0  ffix.o(x$fpl$ffix)
    _ffix                                    0x0800da05   Thumb Code    54  ffix.o(x$fpl$ffix)
    __aeabi_i2f                              0x0800da3d   Thumb Code     0  fflt_clz.o(x$fpl$fflt)
    _fflt                                    0x0800da3d   Thumb Code    48  fflt_clz.o(x$fpl$fflt)
    __fpl_fnaninf                            0x0800da6d   Thumb Code   140  fnaninf.o(x$fpl$fnaninf)
    __fpl_fretinf                            0x0800daf9   Thumb Code    10  fretinf.o(x$fpl$fretinf)
    __aeabi_fsub                             0x0800db05   Thumb Code     0  faddsub_clz.o(x$fpl$fsub)
    _fsub                                    0x0800db05   Thumb Code   234  faddsub_clz.o(x$fpl$fsub)
    _printf_fp_dec                           0x0800dbef   Thumb Code     4  printf1.o(x$fpl$printf1)
    _printf_fp_hex                           0x0800dbf3   Thumb Code     4  printf2.o(x$fpl$printf2)
    __fpl_return_NaN                         0x0800dbf7   Thumb Code   100  retnan.o(x$fpl$retnan)
    __ARM_scalbn                             0x0800dc5b   Thumb Code    92  scalbn.o(x$fpl$scalbn)
    __fpl_cmpreturn                          0x0800dcb7   Thumb Code    48  trapv.o(x$fpl$trapveneer)
    __I$use$fp                               0x0800dce6   Number         0  usenofp.o(x$fpl$usenofp)
    led_pin_list                             0x0800dce6   Data          16  led.o(.constdata)
    F6x8                                     0x0800dcf6   Data         552  oled.o(.constdata)
    F8X16                                    0x0800df1e   Data        1520  oled.o(.constdata)
    OSCfg_StatTaskPrio                       0x0800e6a4   Data           1  os_cfg_app.o(.constdata)
    OSCfg_TickTaskPrio                       0x0800e6a5   Data           1  os_cfg_app.o(.constdata)
    OSCfg_TmrTaskPrio                        0x0800e6a6   Data           1  os_cfg_app.o(.constdata)
    OSCfg_IntQSize                           0x0800e6a8   Data           2  os_cfg_app.o(.constdata)
    OSCfg_MsgPoolSize                        0x0800e6aa   Data           2  os_cfg_app.o(.constdata)
    OSCfg_TickWheelSize                      0x0800e6ac   Data           2  os_cfg_app.o(.constdata)
    OSCfg_TmrWheelSize                       0x0800e6ae   Data           2  os_cfg_app.o(.constdata)
    OSCfg_IdleTaskStkBasePtr                 0x0800e6b0   Data           4  os_cfg_app.o(.constdata)
    OSCfg_IdleTaskStkLimit                   0x0800e6b4   Data           4  os_cfg_app.o(.constdata)
    OSCfg_IdleTaskStkSize                    0x0800e6b8   Data           4  os_cfg_app.o(.constdata)
    OSCfg_IdleTaskStkSizeRAM                 0x0800e6bc   Data           4  os_cfg_app.o(.constdata)
    OSCfg_IntQBasePtr                        0x0800e6c0   Data           4  os_cfg_app.o(.constdata)
    OSCfg_IntQSizeRAM                        0x0800e6c4   Data           4  os_cfg_app.o(.constdata)
    OSCfg_IntQTaskStkBasePtr                 0x0800e6c8   Data           4  os_cfg_app.o(.constdata)
    OSCfg_IntQTaskStkLimit                   0x0800e6cc   Data           4  os_cfg_app.o(.constdata)
    OSCfg_IntQTaskStkSize                    0x0800e6d0   Data           4  os_cfg_app.o(.constdata)
    OSCfg_IntQTaskStkSizeRAM                 0x0800e6d4   Data           4  os_cfg_app.o(.constdata)
    OSCfg_ISRStkBasePtr                      0x0800e6d8   Data           4  os_cfg_app.o(.constdata)
    OSCfg_ISRStkSize                         0x0800e6dc   Data           4  os_cfg_app.o(.constdata)
    OSCfg_ISRStkSizeRAM                      0x0800e6e0   Data           4  os_cfg_app.o(.constdata)
    OSCfg_MsgPoolSizeRAM                     0x0800e6e4   Data           4  os_cfg_app.o(.constdata)
    OSCfg_MsgPoolBasePtr                     0x0800e6e8   Data           4  os_cfg_app.o(.constdata)
    OSCfg_StatTaskRate_Hz                    0x0800e6ec   Data           4  os_cfg_app.o(.constdata)
    OSCfg_StatTaskStkBasePtr                 0x0800e6f0   Data           4  os_cfg_app.o(.constdata)
    OSCfg_StatTaskStkLimit                   0x0800e6f4   Data           4  os_cfg_app.o(.constdata)
    OSCfg_StatTaskStkSize                    0x0800e6f8   Data           4  os_cfg_app.o(.constdata)
    OSCfg_StatTaskStkSizeRAM                 0x0800e6fc   Data           4  os_cfg_app.o(.constdata)
    OSCfg_StkSizeMin                         0x0800e700   Data           4  os_cfg_app.o(.constdata)
    OSCfg_TickRate_Hz                        0x0800e704   Data           4  os_cfg_app.o(.constdata)
    OSCfg_TickTaskStkBasePtr                 0x0800e708   Data           4  os_cfg_app.o(.constdata)
    OSCfg_TickTaskStkLimit                   0x0800e70c   Data           4  os_cfg_app.o(.constdata)
    OSCfg_TickTaskStkSize                    0x0800e710   Data           4  os_cfg_app.o(.constdata)
    OSCfg_TickTaskStkSizeRAM                 0x0800e714   Data           4  os_cfg_app.o(.constdata)
    OSCfg_TickWheelSizeRAM                   0x0800e718   Data           4  os_cfg_app.o(.constdata)
    OSCfg_TmrTaskRate_Hz                     0x0800e71c   Data           4  os_cfg_app.o(.constdata)
    OSCfg_TmrTaskStkBasePtr                  0x0800e720   Data           4  os_cfg_app.o(.constdata)
    OSCfg_TmrTaskStkLimit                    0x0800e724   Data           4  os_cfg_app.o(.constdata)
    OSCfg_TmrTaskStkSize                     0x0800e728   Data           4  os_cfg_app.o(.constdata)
    OSCfg_TmrTaskStkSizeRAM                  0x0800e72c   Data           4  os_cfg_app.o(.constdata)
    OSCfg_TmrWheelSizeRAM                    0x0800e730   Data           4  os_cfg_app.o(.constdata)
    OSCfg_DataSizeRAM                        0x0800e734   Data           4  os_cfg_app.o(.constdata)
    __mathlib_zero                           0x0800e920   Data           8  qnan.o(.constdata)
    Region$$Table$$Base                      0x0800ead4   Number         0  anon$$obj.o(Region$$Table)
    Region$$Table$$Limit                     0x0800eaf4   Number         0  anon$$obj.o(Region$$Table)
    __ctype                                  0x0800eb1d   Data           0  lc_ctype_c.o(locale$$data)
    hc14_connect_state                       0x20000000   Data           1  main.o(.data)
    distance                                 0x20000008   Data           8  main.o(.data)
    angle                                    0x20000010   Data           8  main.o(.data)
    SystemCoreClock                          0x20000018   Data           4  system_stm32f10x.o(.data)
    AHBPrescTable                            0x2000001c   Data          16  system_stm32f10x.o(.data)
    Hzk                                      0x2000002c   Data         576  oled.o(.data)
    esp8266_cntPre                           0x2000026c   Data           1  esp8266.o(.data)
    usart1_rx_count                          0x20000272   Data           1  usart1.o(.data)
    __stdout                                 0x20000274   Data           4  usart1.o(.data)
    usart2_rx_count                          0x20000278   Data           1  usart2.o(.data)
    mqtt_even_state                          0x20000279   Data           1  usart3.o(.data)
    usart3_rx_count                          0x2000027a   Data           1  usart3.o(.data)
    mqtt_connect_state                       0x2000027b   Data           1  usart3.o(.data)
    esp8266_cnt                              0x2000027c   Data           1  usart3.o(.data)
    CPU_TS_TmrFreq_Hz                        0x20000294   Data           4  cpu_core.o(.data)
    Mem_PoolTbl                              0x20000298   Data           4  lib_mem.o(.data)
    OSPrioTbl                                0x2000029c   Data           8  os_prio.o(.data)
    OS_AppTaskCreateHookPtr                  0x200002a4   Data           4  os_var.o(.data)
    OS_AppTaskDelHookPtr                     0x200002a8   Data           4  os_var.o(.data)
    OS_AppTaskReturnHookPtr                  0x200002ac   Data           4  os_var.o(.data)
    OS_AppIdleTaskHookPtr                    0x200002b0   Data           4  os_var.o(.data)
    OS_AppStatTaskHookPtr                    0x200002b4   Data           4  os_var.o(.data)
    OS_AppTaskSwHookPtr                      0x200002b8   Data           4  os_var.o(.data)
    OS_AppTimeTickHookPtr                    0x200002bc   Data           4  os_var.o(.data)
    OSIdleTaskCtr                            0x200002c0   Data           4  os_var.o(.data)
    OSIntNestingCtr                          0x200002c4   Data           1  os_var.o(.data)
    OSRunning                                0x200002c5   Data           1  os_var.o(.data)
    OSIntQInPtr                              0x200002c8   Data           4  os_var.o(.data)
    OSIntQOutPtr                             0x200002cc   Data           4  os_var.o(.data)
    OSIntQNbrEntries                         0x200002d0   Data           2  os_var.o(.data)
    OSIntQNbrEntriesMax                      0x200002d2   Data           2  os_var.o(.data)
    OSIntQOvfCtr                             0x200002d4   Data           2  os_var.o(.data)
    OSIntQTaskTimeMax                        0x200002d8   Data           4  os_var.o(.data)
    OSFlagDbgListPtr                         0x200002dc   Data           4  os_var.o(.data)
    OSFlagQty                                0x200002e0   Data           2  os_var.o(.data)
    OSMemDbgListPtr                          0x200002e4   Data           4  os_var.o(.data)
    OSMemQty                                 0x200002e8   Data           2  os_var.o(.data)
    OSMutexDbgListPtr                        0x200002ec   Data           4  os_var.o(.data)
    OSMutexQty                               0x200002f0   Data           2  os_var.o(.data)
    OSPrioCur                                0x200002f2   Data           1  os_var.o(.data)
    OSPrioHighRdy                            0x200002f3   Data           1  os_var.o(.data)
    OSPrioSaved                              0x200002f4   Data           1  os_var.o(.data)
    OSQDbgListPtr                            0x200002f8   Data           4  os_var.o(.data)
    OSQQty                                   0x200002fc   Data           2  os_var.o(.data)
    OSSchedLockTimeBegin                     0x20000300   Data           4  os_var.o(.data)
    OSSchedLockTimeMax                       0x20000304   Data           4  os_var.o(.data)
    OSSchedLockTimeMaxCur                    0x20000308   Data           4  os_var.o(.data)
    OSSchedLockNestingCtr                    0x2000030c   Data           1  os_var.o(.data)
    OSSchedRoundRobinDfltTimeQuanta          0x20000310   Data           4  os_var.o(.data)
    OSSchedRoundRobinEn                      0x20000314   Data           1  os_var.o(.data)
    OSSemDbgListPtr                          0x20000318   Data           4  os_var.o(.data)
    OSSemQty                                 0x2000031c   Data           2  os_var.o(.data)
    OSStatResetFlag                          0x2000031e   Data           1  os_var.o(.data)
    OSStatTaskCPUUsage                       0x20000320   Data           2  os_var.o(.data)
    OSStatTaskCPUUsageMax                    0x20000322   Data           2  os_var.o(.data)
    OSStatTaskCtr                            0x20000324   Data           4  os_var.o(.data)
    OSStatTaskCtrMax                         0x20000328   Data           4  os_var.o(.data)
    OSStatTaskCtrRun                         0x2000032c   Data           4  os_var.o(.data)
    OSStatTaskRdy                            0x20000330   Data           1  os_var.o(.data)
    OSStatTaskTimeMax                        0x20000334   Data           4  os_var.o(.data)
    OSTaskCtxSwCtr                           0x20000338   Data           4  os_var.o(.data)
    OSTaskDbgListPtr                         0x2000033c   Data           4  os_var.o(.data)
    OSTaskQty                                0x20000340   Data           2  os_var.o(.data)
    OSTaskRegNextAvailID                     0x20000342   Data           1  os_var.o(.data)
    OSTickCtr                                0x20000344   Data           4  os_var.o(.data)
    OSTickTaskTimeMax                        0x20000348   Data           4  os_var.o(.data)
    OSTmrDbgListPtr                          0x2000034c   Data           4  os_var.o(.data)
    OSTmrQty                                 0x20000350   Data           2  os_var.o(.data)
    OSTmrTaskTimeMax                         0x20000354   Data           4  os_var.o(.data)
    OSTmrTickCtr                             0x20000358   Data           4  os_var.o(.data)
    OSTmrUpdateCnt                           0x2000035c   Data           4  os_var.o(.data)
    OSTmrUpdateCtr                           0x20000360   Data           4  os_var.o(.data)
    OSTCBCurPtr                              0x20000364   Data           4  os_var.o(.data)
    OSTCBHighRdyPtr                          0x20000368   Data           4  os_var.o(.data)
    OS_CPU_ExceptStkBase                     0x2000036c   Data           4  os_cpu_c.o(.data)
    StartTaskTCB                             0x20000374   Data         196  main.o(.bss)
    START_TASK_STK                           0x20000438   Data         512  main.o(.bss)
    mqtt_task_tcb                            0x20000638   Data         196  main.o(.bss)
    MQTT_TASK_STK                            0x200006fc   Data        1024  main.o(.bss)
    oled_task_tcb                            0x20000afc   Data         196  main.o(.bss)
    OLED_TASK_STK                            0x20000bc0   Data         512  main.o(.bss)
    point_task_tcb                           0x20000dc0   Data         196  main.o(.bss)
    POINT_TASK_STK                           0x20000e84   Data        1024  main.o(.bss)
    gps_task_tcb                             0x20001284   Data         196  main.o(.bss)
    GPS_TASK_STK                             0x20001348   Data        1024  main.o(.bss)
    hc14_task_tcb                            0x20001748   Data         196  main.o(.bss)
    HC14_TASK_STK                            0x2000180c   Data        1024  main.o(.bss)
    oled_sem                                 0x20001c0c   Data          40  main.o(.bss)
    gps_info                                 0x20001c34   Data          28  main.o(.bss)
    gps_info_ta                              0x20001c50   Data          28  main.o(.bss)
    hc14_receive_message                     0x20001c6c   Data         200  usart1.o(.bss)
    usart1_buf                               0x20001d34   Data         200  usart1.o(.bss)
    gps_buffer                               0x20001dfc   Data         200  usart2.o(.bss)
    usart2_buf                               0x20001ec4   Data         200  usart2.o(.bss)
    usart3_buf                               0x20001f8c   Data         200  usart3.o(.bss)
    mqtt_receive_message                     0x20002054   Data         200  usart3.o(.bss)
    esp8266_buf                              0x2000211c   Data         200  usart3.o(.bss)
    CPU_Name                                 0x200021e4   Data          16  cpu_core.o(.bss)
    Mem_PoolHeap                             0x200021f4   Data          72  lib_mem.o(.bss)
    Mem_Heap                                 0x2000223c   Data        1024  lib_mem.o(.bss)
    OSCfg_IdleTaskStk                        0x2000263c   Data         512  os_cfg_app.o(.bss)
    OSCfg_IntQ                               0x2000283c   Data         320  os_cfg_app.o(.bss)
    OSCfg_IntQTaskStk                        0x2000297c   Data         512  os_cfg_app.o(.bss)
    OSCfg_ISRStk                             0x20002b7c   Data         512  os_cfg_app.o(.bss)
    OSCfg_MsgPool                            0x20002d7c   Data        1600  os_cfg_app.o(.bss)
    OSCfg_StatTaskStk                        0x200033bc   Data         512  os_cfg_app.o(.bss)
    OSCfg_TickTaskStk                        0x200035bc   Data         512  os_cfg_app.o(.bss)
    OSCfg_TickWheel                          0x200037bc   Data         136  os_cfg_app.o(.bss)
    OSCfg_TmrTaskStk                         0x20003844   Data         512  os_cfg_app.o(.bss)
    OSCfg_TmrWheel                           0x20003a44   Data         136  os_cfg_app.o(.bss)
    OSIdleTaskTCB                            0x20003acc   Data         196  os_var.o(.bss)
    OSIntQTaskTCB                            0x20003b90   Data         196  os_var.o(.bss)
    OSMsgPool                                0x20003c54   Data          12  os_var.o(.bss)
    OSRdyList                                0x20003c60   Data         768  os_var.o(.bss)
    OSStatTaskTCB                            0x20003f60   Data         196  os_var.o(.bss)
    OSTickTaskTCB                            0x20004024   Data         196  os_var.o(.bss)
    OSTmrTaskTCB                             0x200040e8   Data         196  os_var.o(.bss)
    __libspace_start                         0x200041ac   Data          96  libspace.o(.bss)
    __temporary_stack_top$libspace           0x2000420c   Data           0  libspace.o(.bss)



==============================================================================

Memory Map of the image

  Image Entry point : 0x080000ed

  Load Region LR_IROM1 (Base: 0x08000000, Size: 0x0000ef94, Max: 0x00010000, ABSOLUTE, COMPRESSED[0x0000ed44])

    Execution Region ER_IROM1 (Exec base: 0x08000000, Load base: 0x08000000, Size: 0x0000ec20, Max: 0x00010000, ABSOLUTE)

    Exec Addr    Load Addr    Size         Type   Attr      Idx    E Section Name        Object

    0x08000000   0x08000000   0x000000ec   Data   RO          468    RESET               startup_stm32f10x_md.o
    0x080000ec   0x080000ec   0x00000008   Code   RO         1139  * !!!main             c_w.l(__main.o)
    0x080000f4   0x080000f4   0x00000034   Code   RO         1611    !!!scatter          c_w.l(__scatter.o)
    0x08000128   0x08000128   0x0000005a   Code   RO         1609    !!dczerorl2         c_w.l(__dczerorl2.o)
    0x08000182   0x08000182   0x00000002   PAD
    0x08000184   0x08000184   0x0000001c   Code   RO         1613    !!handler_zi        c_w.l(__scatter_zi.o)
    0x080001a0   0x080001a0   0x00000000   Code   RO         1113    .ARM.Collect$$_printf_percent$$00000000  c_w.l(_printf_percent.o)
    0x080001a0   0x080001a0   0x00000006   Code   RO         1294    .ARM.Collect$$_printf_percent$$00000001  c_w.l(_printf_n.o)
    0x080001a6   0x080001a6   0x00000006   Code   RO         1295    .ARM.Collect$$_printf_percent$$00000002  c_w.l(_printf_p.o)
    0x080001ac   0x080001ac   0x00000006   Code   RO         1299    .ARM.Collect$$_printf_percent$$00000003  c_w.l(_printf_f.o)
    0x080001b2   0x080001b2   0x00000006   Code   RO         1300    .ARM.Collect$$_printf_percent$$00000004  c_w.l(_printf_e.o)
    0x080001b8   0x080001b8   0x00000006   Code   RO         1301    .ARM.Collect$$_printf_percent$$00000005  c_w.l(_printf_g.o)
    0x080001be   0x080001be   0x00000006   Code   RO         1302    .ARM.Collect$$_printf_percent$$00000006  c_w.l(_printf_a.o)
    0x080001c4   0x080001c4   0x0000000a   Code   RO         1307    .ARM.Collect$$_printf_percent$$00000007  c_w.l(_printf_ll.o)
    0x080001ce   0x080001ce   0x00000006   Code   RO         1297    .ARM.Collect$$_printf_percent$$00000008  c_w.l(_printf_i.o)
    0x080001d4   0x080001d4   0x00000006   Code   RO         1112    .ARM.Collect$$_printf_percent$$00000009  c_w.l(_printf_d.o)
    0x080001da   0x080001da   0x00000006   Code   RO         1298    .ARM.Collect$$_printf_percent$$0000000A  c_w.l(_printf_u.o)
    0x080001e0   0x080001e0   0x00000006   Code   RO         1296    .ARM.Collect$$_printf_percent$$0000000B  c_w.l(_printf_o.o)
    0x080001e6   0x080001e6   0x00000006   Code   RO         1111    .ARM.Collect$$_printf_percent$$0000000C  c_w.l(_printf_x.o)
    0x080001ec   0x080001ec   0x00000006   Code   RO         1304    .ARM.Collect$$_printf_percent$$0000000D  c_w.l(_printf_lli.o)
    0x080001f2   0x080001f2   0x00000006   Code   RO         1305    .ARM.Collect$$_printf_percent$$0000000E  c_w.l(_printf_lld.o)
    0x080001f8   0x080001f8   0x00000006   Code   RO         1306    .ARM.Collect$$_printf_percent$$0000000F  c_w.l(_printf_llu.o)
    0x080001fe   0x080001fe   0x00000006   Code   RO         1311    .ARM.Collect$$_printf_percent$$00000010  c_w.l(_printf_llo.o)
    0x08000204   0x08000204   0x00000006   Code   RO         1312    .ARM.Collect$$_printf_percent$$00000011  c_w.l(_printf_llx.o)
    0x0800020a   0x0800020a   0x0000000a   Code   RO         1308    .ARM.Collect$$_printf_percent$$00000012  c_w.l(_printf_l.o)
    0x08000214   0x08000214   0x00000006   Code   RO         1293    .ARM.Collect$$_printf_percent$$00000013  c_w.l(_printf_c.o)
    0x0800021a   0x0800021a   0x00000006   Code   RO         1110    .ARM.Collect$$_printf_percent$$00000014  c_w.l(_printf_s.o)
    0x08000220   0x08000220   0x00000006   Code   RO         1309    .ARM.Collect$$_printf_percent$$00000015  c_w.l(_printf_lc.o)
    0x08000226   0x08000226   0x00000006   Code   RO         1310    .ARM.Collect$$_printf_percent$$00000016  c_w.l(_printf_ls.o)
    0x0800022c   0x0800022c   0x00000004   Code   RO         1303    .ARM.Collect$$_printf_percent$$00000017  c_w.l(_printf_percent_end.o)
    0x08000230   0x08000230   0x00000002   Code   RO         1479    .ARM.Collect$$libinit$$00000000  c_w.l(libinit.o)
    0x08000232   0x08000232   0x00000000   Code   RO         1496    .ARM.Collect$$libinit$$00000002  c_w.l(libinit2.o)
    0x08000232   0x08000232   0x00000000   Code   RO         1498    .ARM.Collect$$libinit$$00000004  c_w.l(libinit2.o)
    0x08000232   0x08000232   0x00000000   Code   RO         1501    .ARM.Collect$$libinit$$0000000A  c_w.l(libinit2.o)
    0x08000232   0x08000232   0x00000000   Code   RO         1503    .ARM.Collect$$libinit$$0000000C  c_w.l(libinit2.o)
    0x08000232   0x08000232   0x00000000   Code   RO         1505    .ARM.Collect$$libinit$$0000000E  c_w.l(libinit2.o)
    0x08000232   0x08000232   0x00000006   Code   RO         1506    .ARM.Collect$$libinit$$0000000F  c_w.l(libinit2.o)
    0x08000238   0x08000238   0x00000000   Code   RO         1508    .ARM.Collect$$libinit$$00000011  c_w.l(libinit2.o)
    0x08000238   0x08000238   0x0000000c   Code   RO         1509    .ARM.Collect$$libinit$$00000012  c_w.l(libinit2.o)
    0x08000244   0x08000244   0x00000000   Code   RO         1510    .ARM.Collect$$libinit$$00000013  c_w.l(libinit2.o)
    0x08000244   0x08000244   0x00000000   Code   RO         1512    .ARM.Collect$$libinit$$00000015  c_w.l(libinit2.o)
    0x08000244   0x08000244   0x0000000a   Code   RO         1513    .ARM.Collect$$libinit$$00000016  c_w.l(libinit2.o)
    0x0800024e   0x0800024e   0x00000000   Code   RO         1514    .ARM.Collect$$libinit$$00000017  c_w.l(libinit2.o)
    0x0800024e   0x0800024e   0x00000000   Code   RO         1516    .ARM.Collect$$libinit$$00000019  c_w.l(libinit2.o)
    0x0800024e   0x0800024e   0x00000000   Code   RO         1518    .ARM.Collect$$libinit$$0000001B  c_w.l(libinit2.o)
    0x0800024e   0x0800024e   0x00000000   Code   RO         1520    .ARM.Collect$$libinit$$0000001D  c_w.l(libinit2.o)
    0x0800024e   0x0800024e   0x00000000   Code   RO         1522    .ARM.Collect$$libinit$$0000001F  c_w.l(libinit2.o)
    0x0800024e   0x0800024e   0x00000000   Code   RO         1524    .ARM.Collect$$libinit$$00000021  c_w.l(libinit2.o)
    0x0800024e   0x0800024e   0x00000000   Code   RO         1526    .ARM.Collect$$libinit$$00000023  c_w.l(libinit2.o)
    0x0800024e   0x0800024e   0x00000000   Code   RO         1528    .ARM.Collect$$libinit$$00000025  c_w.l(libinit2.o)
    0x0800024e   0x0800024e   0x00000000   Code   RO         1532    .ARM.Collect$$libinit$$0000002C  c_w.l(libinit2.o)
    0x0800024e   0x0800024e   0x00000000   Code   RO         1534    .ARM.Collect$$libinit$$0000002E  c_w.l(libinit2.o)
    0x0800024e   0x0800024e   0x00000000   Code   RO         1536    .ARM.Collect$$libinit$$00000030  c_w.l(libinit2.o)
    0x0800024e   0x0800024e   0x00000000   Code   RO         1538    .ARM.Collect$$libinit$$00000032  c_w.l(libinit2.o)
    0x0800024e   0x0800024e   0x00000002   Code   RO         1539    .ARM.Collect$$libinit$$00000033  c_w.l(libinit2.o)
    0x08000250   0x08000250   0x00000002   Code   RO         1565    .ARM.Collect$$libshutdown$$00000000  c_w.l(libshutdown.o)
    0x08000252   0x08000252   0x00000000   Code   RO         1592    .ARM.Collect$$libshutdown$$00000002  c_w.l(libshutdown2.o)
    0x08000252   0x08000252   0x00000000   Code   RO         1594    .ARM.Collect$$libshutdown$$00000004  c_w.l(libshutdown2.o)
    0x08000252   0x08000252   0x00000000   Code   RO         1597    .ARM.Collect$$libshutdown$$00000007  c_w.l(libshutdown2.o)
    0x08000252   0x08000252   0x00000000   Code   RO         1600    .ARM.Collect$$libshutdown$$0000000A  c_w.l(libshutdown2.o)
    0x08000252   0x08000252   0x00000000   Code   RO         1602    .ARM.Collect$$libshutdown$$0000000C  c_w.l(libshutdown2.o)
    0x08000252   0x08000252   0x00000000   Code   RO         1605    .ARM.Collect$$libshutdown$$0000000F  c_w.l(libshutdown2.o)
    0x08000252   0x08000252   0x00000002   Code   RO         1606    .ARM.Collect$$libshutdown$$00000010  c_w.l(libshutdown2.o)
    0x08000254   0x08000254   0x00000000   Code   RO         1261    .ARM.Collect$$rtentry$$00000000  c_w.l(__rtentry.o)
    0x08000254   0x08000254   0x00000000   Code   RO         1378    .ARM.Collect$$rtentry$$00000002  c_w.l(__rtentry2.o)
    0x08000254   0x08000254   0x00000006   Code   RO         1390    .ARM.Collect$$rtentry$$00000004  c_w.l(__rtentry4.o)
    0x0800025a   0x0800025a   0x00000000   Code   RO         1380    .ARM.Collect$$rtentry$$00000009  c_w.l(__rtentry2.o)
    0x0800025a   0x0800025a   0x00000004   Code   RO         1381    .ARM.Collect$$rtentry$$0000000A  c_w.l(__rtentry2.o)
    0x0800025e   0x0800025e   0x00000000   Code   RO         1383    .ARM.Collect$$rtentry$$0000000C  c_w.l(__rtentry2.o)
    0x0800025e   0x0800025e   0x00000008   Code   RO         1384    .ARM.Collect$$rtentry$$0000000D  c_w.l(__rtentry2.o)
    0x08000266   0x08000266   0x00000002   Code   RO         1484    .ARM.Collect$$rtexit$$00000000  c_w.l(rtexit.o)
    0x08000268   0x08000268   0x00000000   Code   RO         1541    .ARM.Collect$$rtexit$$00000002  c_w.l(rtexit2.o)
    0x08000268   0x08000268   0x00000004   Code   RO         1542    .ARM.Collect$$rtexit$$00000003  c_w.l(rtexit2.o)
    0x0800026c   0x0800026c   0x00000006   Code   RO         1543    .ARM.Collect$$rtexit$$00000004  c_w.l(rtexit2.o)
    0x08000272   0x08000272   0x00000002   PAD
    0x08000274   0x08000274   0x000009c8   Code   RO            1    .text               main.o
    0x08000c3c   0x08000c3c   0x0000000e   Code   RO          168    .text               stm32f10x_it.o
    0x08000c4a   0x08000c4a   0x00000002   PAD
    0x08000c4c   0x08000c4c   0x00000158   Code   RO          200    .text               system_stm32f10x.o
    0x08000da4   0x08000da4   0x00000094   Code   RO          218    .text               led.o
    0x08000e38   0x08000e38   0x0000035c   Code   RO          233    .text               oled.o
    0x08001194   0x08001194   0x000003ac   Code   RO          259    .text               iic.o
    0x08001540   0x08001540   0x000003e0   Code   RO          282    .text               esp8266.o
    0x08001920   0x08001920   0x00000120   Code   RO          298    .text               gps.o
    0x08001a40   0x08001a40   0x00000158   Code   RO          315    .text               hmc5883l.o
    0x08001b98   0x08001b98   0x00000118   Code   RO          331    .text               delay.o
    0x08001cb0   0x08001cb0   0x0000021c   Code   RO          363    .text               usart1.o
    0x08001ecc   0x08001ecc   0x00000138   Code   RO          388    .text               usart2.o
    0x08002004   0x08002004   0x00000288   Code   RO          404    .text               usart3.o
    0x0800228c   0x0800228c   0x00000564   Code   RO          425    .text               utils.o
    0x080027f0   0x080027f0   0x00000040   Code   RO          441    .text               iwdg.o
    0x08002830   0x08002830   0x00000040   Code   RO          469    .text               startup_stm32f10x_md.o
    0x08002870   0x08002870   0x000000b0   Code   RO          473    .text               misc.o
    0x08002920   0x08002920   0x00000264   Code   RO          485    .text               stm32f10x_gpio.o
    0x08002b84   0x08002b84   0x00000328   Code   RO          497    .text               stm32f10x_usart.o
    0x08002eac   0x08002eac   0x000002b8   Code   RO          509    .text               stm32f10x_rcc.o
    0x08003164   0x08003164   0x0000003c   Code   RO          552    .text               stm32f10x_iwdg.o
    0x080031a0   0x080031a0   0x00000068   Code   RO          564    .text               bsp.o
    0x08003208   0x08003208   0x000001bc   Code   RO          580    .text               cpu_core.o
    0x080033c4   0x080033c4   0x00000034   Code   RO          620    .text               cpu_a.o
    0x080033f8   0x080033f8   0x0000015a   Code   RO          623    .text               lib_ascii.o
    0x08003552   0x08003552   0x00000002   PAD
    0x08003554   0x08003554   0x00000668   Code   RO          658    .text               lib_mem.o
    0x08003bbc   0x08003bbc   0x000005a8   Code   RO          677    .text               lib_str.o
    0x08004164   0x08004164   0x00000220   Code   RO          695    .text               lib_mem_a.o
    0x08004384   0x08004384   0x00000002   Code   RO          698    .text               os_cfg_app.o
    0x08004386   0x08004386   0x00000002   PAD
    0x08004388   0x08004388   0x00000adc   Code   RO          730    .text               os_core.o
    0x08004e64   0x08004e64   0x00000002   Code   RO          743    .text               os_dbg.o
    0x08004e66   0x08004e66   0x00000002   PAD
    0x08004e68   0x08004e68   0x00000768   Code   RO          759    .text               os_flag.o
    0x080055d0   0x080055d0   0x00000328   Code   RO          772    .text               os_int.o
    0x080058f8   0x080058f8   0x00000174   Code   RO          784    .text               os_mem.o
    0x08005a6c   0x08005a6c   0x00000188   Code   RO          796    .text               os_msg.o
    0x08005bf4   0x08005bf4   0x000006e8   Code   RO          808    .text               os_mutex.o
    0x080062dc   0x080062dc   0x00000070   Code   RO          827    .text               os_prio.o
    0x0800634c   0x0800634c   0x00000610   Code   RO          846    .text               os_q.o
    0x0800695c   0x0800695c   0x00000554   Code   RO          859    .text               os_sem.o
    0x08006eb0   0x08006eb0   0x00000400   Code   RO          872    .text               os_stat.o
    0x080072b0   0x080072b0   0x00000f2c   Code   RO          884    .text               os_task.o
    0x080081dc   0x080081dc   0x00000350   Code   RO          896    .text               os_tick.o
    0x0800852c   0x0800852c   0x00000310   Code   RO          909    .text               os_time.o
    0x0800883c   0x0800883c   0x0000065c   Code   RO          921    .text               os_tmr.o
    0x08008e98   0x08008e98   0x00000188   Code   RO         1012    .text               os_cpu_c.o
    0x08009020   0x08009020   0x00000002   Code   RO         1047    .text               c_w.l(use_no_semi_2.o)
    0x08009022   0x08009022   0x000000ee   Code   RO         1049    .text               c_w.l(lludivv7m.o)
    0x08009110   0x08009110   0x00000024   Code   RO         1051    .text               c_w.l(vsprintf.o)
    0x08009134   0x08009134   0x00000018   Code   RO         1053    .text               c_w.l(__2printf.o)
    0x0800914c   0x0800914c   0x0000002c   Code   RO         1055    .text               c_w.l(__2sprintf.o)
    0x08009178   0x08009178   0x0000004e   Code   RO         1063    .text               c_w.l(_printf_pad.o)
    0x080091c6   0x080091c6   0x00000052   Code   RO         1065    .text               c_w.l(_printf_str.o)
    0x08009218   0x08009218   0x00000078   Code   RO         1067    .text               c_w.l(_printf_dec.o)
    0x08009290   0x08009290   0x00000094   Code   RO         1087    .text               c_w.l(_printf_hex_int_ll_ptr.o)
    0x08009324   0x08009324   0x00000188   Code   RO         1107    .text               c_w.l(__printf_flags_ss_wp.o)
    0x080094ac   0x080094ac   0x0000003c   Code   RO         1114    .text               c_w.l(__0sscanf.o)
    0x080094e8   0x080094e8   0x0000014c   Code   RO         1116    .text               c_w.l(_scanf_int.o)
    0x08009634   0x08009634   0x0000000c   Code   RO         1118    .text               c_w.l(strtok.o)
    0x08009640   0x08009640   0x00000024   Code   RO         1121    .text               c_w.l(strstr.o)
    0x08009664   0x08009664   0x00000048   Code   RO         1123    .text               c_w.l(strcpy.o)
    0x080096ac   0x080096ac   0x00000018   Code   RO         1125    .text               c_w.l(strcat.o)
    0x080096c4   0x080096c4   0x0000008a   Code   RO         1127    .text               c_w.l(rt_memcpy_v6.o)
    0x0800974e   0x0800974e   0x00000064   Code   RO         1129    .text               c_w.l(rt_memcpy_w.o)
    0x080097b2   0x080097b2   0x00000044   Code   RO         1131    .text               c_w.l(rt_memclr.o)
    0x080097f6   0x080097f6   0x0000004e   Code   RO         1133    .text               c_w.l(rt_memclr_w.o)
    0x08009844   0x08009844   0x00000080   Code   RO         1135    .text               c_w.l(strcmpv7m.o)
    0x080098c4   0x080098c4   0x00000006   Code   RO         1137    .text               c_w.l(heapauxi.o)
    0x080098ca   0x080098ca   0x00000002   Code   RO         1259    .text               c_w.l(use_no_semi.o)
    0x080098cc   0x080098cc   0x00000016   Code   RO         1266    .text               c_w.l(_rserrno.o)
    0x080098e2   0x080098e2   0x00000024   Code   RO         1268    .text               c_w.l(_printf_truncate.o)
    0x08009906   0x08009906   0x000000b2   Code   RO         1270    .text               c_w.l(_printf_intcommon.o)
    0x080099b8   0x080099b8   0x00000028   Code   RO         1272    .text               c_w.l(_printf_charcount.o)
    0x080099e0   0x080099e0   0x00000030   Code   RO         1274    .text               c_w.l(_printf_char_common.o)
    0x08009a10   0x08009a10   0x0000000a   Code   RO         1276    .text               c_w.l(_sputc.o)
    0x08009a1a   0x08009a1a   0x0000002c   Code   RO         1278    .text               c_w.l(_printf_char.o)
    0x08009a46   0x08009a46   0x00000002   PAD
    0x08009a48   0x08009a48   0x00000024   Code   RO         1280    .text               c_w.l(_printf_char_file.o)
    0x08009a6c   0x08009a6c   0x000000bc   Code   RO         1282    .text               c_w.l(_printf_wctomb.o)
    0x08009b28   0x08009b28   0x0000007c   Code   RO         1285    .text               c_w.l(_printf_longlong_dec.o)
    0x08009ba4   0x08009ba4   0x00000070   Code   RO         1291    .text               c_w.l(_printf_oct_int_ll.o)
    0x08009c14   0x08009c14   0x0000001c   Code   RO         1313    .text               c_w.l(_chval.o)
    0x08009c30   0x08009c30   0x0000002c   Code   RO         1315    .text               c_w.l(scanf_char.o)
    0x08009c5c   0x08009c5c   0x00000040   Code   RO         1317    .text               c_w.l(_sgetc.o)
    0x08009c9c   0x08009c9c   0x00000044   Code   RO         1319    .text               c_w.l(strtok_int.o)
    0x08009ce0   0x08009ce0   0x00000008   Code   RO         1397    .text               c_w.l(rt_errno_addr_intlibspace.o)
    0x08009ce8   0x08009ce8   0x0000008a   Code   RO         1399    .text               c_w.l(lludiv10.o)
    0x08009d72   0x08009d72   0x00000012   Code   RO         1401    .text               c_w.l(isspace.o)
    0x08009d84   0x08009d84   0x0000041e   Code   RO         1403    .text               c_w.l(_printf_fp_dec.o)
    0x0800a1a2   0x0800a1a2   0x00000002   PAD
    0x0800a1a4   0x0800a1a4   0x000002fc   Code   RO         1405    .text               c_w.l(_printf_fp_hex.o)
    0x0800a4a0   0x0800a4a0   0x0000002c   Code   RO         1410    .text               c_w.l(_printf_wchar.o)
    0x0800a4cc   0x0800a4cc   0x00000374   Code   RO         1412    .text               c_w.l(_scanf.o)
    0x0800a840   0x0800a840   0x00000008   Code   RO         1414    .text               c_w.l(ferror.o)
    0x0800a848   0x0800a848   0x00000040   Code   RO         1418    .text               c_w.l(_wcrtomb.o)
    0x0800a888   0x0800a888   0x00000020   Code   RO         1420    .text               c_w.l(strcspn.o)
    0x0800a8a8   0x0800a8a8   0x0000001c   Code   RO         1422    .text               c_w.l(strspn.o)
    0x0800a8c4   0x0800a8c4   0x00000008   Code   RO         1426    .text               c_w.l(libspace.o)
    0x0800a8cc   0x0800a8cc   0x0000004a   Code   RO         1429    .text               c_w.l(sys_stackheap_outer.o)
    0x0800a916   0x0800a916   0x00000002   PAD
    0x0800a918   0x0800a918   0x00000010   Code   RO         1431    .text               c_w.l(rt_ctype_table.o)
    0x0800a928   0x0800a928   0x00000008   Code   RO         1436    .text               c_w.l(rt_locale_intlibspace.o)
    0x0800a930   0x0800a930   0x00000080   Code   RO         1438    .text               c_w.l(_printf_fp_infnan.o)
    0x0800a9b0   0x0800a9b0   0x000000e4   Code   RO         1440    .text               c_w.l(bigflt0.o)
    0x0800aa94   0x0800aa94   0x00000012   Code   RO         1468    .text               c_w.l(exit.o)
    0x0800aaa6   0x0800aaa6   0x0000003e   Code   RO         1443    CL$$btod_d2e        c_w.l(btod.o)
    0x0800aae4   0x0800aae4   0x00000046   Code   RO         1445    CL$$btod_d2e_denorm_low  c_w.l(btod.o)
    0x0800ab2a   0x0800ab2a   0x00000060   Code   RO         1444    CL$$btod_d2e_norm_op1  c_w.l(btod.o)
    0x0800ab8a   0x0800ab8a   0x00000338   Code   RO         1453    CL$$btod_div_common  c_w.l(btod.o)
    0x0800aec2   0x0800aec2   0x000000dc   Code   RO         1450    CL$$btod_e2e        c_w.l(btod.o)
    0x0800af9e   0x0800af9e   0x0000002a   Code   RO         1447    CL$$btod_ediv       c_w.l(btod.o)
    0x0800afc8   0x0800afc8   0x0000002a   Code   RO         1446    CL$$btod_emul       c_w.l(btod.o)
    0x0800aff2   0x0800aff2   0x00000244   Code   RO         1452    CL$$btod_mult_common  c_w.l(btod.o)
    0x0800b236   0x0800b236   0x00000002   PAD
    0x0800b238   0x0800b238   0x00000098   Code   RO         1009    CODE                os_cpu_a.o
    0x0800b2d0   0x0800b2d0   0x00000028   Code   RO         1361    i.__ARM_fpclassify  m_ws.l(fpclassify.o)
    0x0800b2f8   0x0800b2f8   0x00000388   Code   RO         1366    i.__ieee754_rem_pio2  m_ws.l(rred.o)
    0x0800b680   0x0800b680   0x000000fc   Code   RO         1344    i.__kernel_cos      m_ws.l(cos_i.o)
    0x0800b77c   0x0800b77c   0x000000aa   Code   RO         1363    i.__kernel_poly     m_ws.l(poly.o)
    0x0800b826   0x0800b826   0x00000002   PAD
    0x0800b828   0x0800b828   0x000000ec   Code   RO         1371    i.__kernel_sin      m_ws.l(sin_i.o)
    0x0800b914   0x0800b914   0x00000010   Code   RO         1347    i.__mathlib_dbl_divzero  m_ws.l(dunder.o)
    0x0800b924   0x0800b924   0x00000006   Code   RO         1348    i.__mathlib_dbl_infnan  m_ws.l(dunder.o)
    0x0800b92a   0x0800b92a   0x00000004   Code   RO         1349    i.__mathlib_dbl_infnan2  m_ws.l(dunder.o)
    0x0800b92e   0x0800b92e   0x0000000c   Code   RO         1350    i.__mathlib_dbl_invalid  m_ws.l(dunder.o)
    0x0800b93a   0x0800b93a   0x0000000e   Code   RO         1351    i.__mathlib_dbl_overflow  m_ws.l(dunder.o)
    0x0800b948   0x0800b948   0x00000010   Code   RO         1353    i.__mathlib_dbl_underflow  m_ws.l(dunder.o)
    0x0800b958   0x0800b958   0x0000000e   Code   RO         1100    i._is_digit         c_w.l(__printf_wp.o)
    0x0800b966   0x0800b966   0x00000002   PAD
    0x0800b968   0x0800b968   0x00000270   Code   RO         1198    i.asin              m_ws.l(asin.o)
    0x0800bbd8   0x0800bbd8   0x00000220   Code   RO         1208    i.atan              m_ws.l(atan.o)
    0x0800bdf8   0x0800bdf8   0x00000180   Code   RO         1218    i.atan2             m_ws.l(atan2.o)
    0x0800bf78   0x0800bf78   0x0000009c   Code   RO         1226    i.cos               m_ws.l(cos.o)
    0x0800c014   0x0800c014   0x000009d8   Code   RO         1234    i.pow               m_ws.l(pow.o)
    0x0800c9ec   0x0800c9ec   0x000000a0   Code   RO         1244    i.sin               m_ws.l(sin.o)
    0x0800ca8c   0x0800ca8c   0x0000004c   Code   RO         1252    i.sqrt              m_ws.l(sqrt.o)
    0x0800cad8   0x0800cad8   0x0000002c   Code   RO         1466    locale$$code        c_w.l(lc_numeric_c.o)
    0x0800cb04   0x0800cb04   0x0000002c   Code   RO         1489    locale$$code        c_w.l(lc_ctype_c.o)
    0x0800cb30   0x0800cb30   0x00000062   Code   RO         1141    x$fpl$d2f           fz_ws.l(d2f.o)
    0x0800cb92   0x0800cb92   0x00000002   PAD
    0x0800cb94   0x0800cb94   0x00000150   Code   RO         1143    x$fpl$dadd          fz_ws.l(daddsub_clz.o)
    0x0800cce4   0x0800cce4   0x00000010   Code   RO         1321    x$fpl$dcheck1       fz_ws.l(dcheck1.o)
    0x0800ccf4   0x0800ccf4   0x00000018   Code   RO         1323    x$fpl$dcmpinf       fz_ws.l(dcmpi.o)
    0x0800cd0c   0x0800cd0c   0x000002b0   Code   RO         1150    x$fpl$ddiv          fz_ws.l(ddiv.o)
    0x0800cfbc   0x0800cfbc   0x0000005e   Code   RO         1153    x$fpl$dfix          fz_ws.l(dfix.o)
    0x0800d01a   0x0800d01a   0x00000002   PAD
    0x0800d01c   0x0800d01c   0x0000005a   Code   RO         1157    x$fpl$dfixu         fz_ws.l(dfixu.o)
    0x0800d076   0x0800d076   0x0000002e   Code   RO         1162    x$fpl$dflt          fz_ws.l(dflt_clz.o)
    0x0800d0a4   0x0800d0a4   0x00000026   Code   RO         1161    x$fpl$dfltu         fz_ws.l(dflt_clz.o)
    0x0800d0ca   0x0800d0ca   0x00000002   PAD
    0x0800d0cc   0x0800d0cc   0x00000078   Code   RO         1167    x$fpl$dleqf         fz_ws.l(dleqf.o)
    0x0800d144   0x0800d144   0x00000154   Code   RO         1169    x$fpl$dmul          fz_ws.l(dmul.o)
    0x0800d298   0x0800d298   0x0000009c   Code   RO         1325    x$fpl$dnaninf       fz_ws.l(dnaninf.o)
    0x0800d334   0x0800d334   0x0000000c   Code   RO         1327    x$fpl$dretinf       fz_ws.l(dretinf.o)
    0x0800d340   0x0800d340   0x0000006c   Code   RO         1171    x$fpl$drleqf        fz_ws.l(drleqf.o)
    0x0800d3ac   0x0800d3ac   0x00000016   Code   RO         1144    x$fpl$drsb          fz_ws.l(daddsub_clz.o)
    0x0800d3c2   0x0800d3c2   0x00000002   PAD
    0x0800d3c4   0x0800d3c4   0x000001cc   Code   RO         1329    x$fpl$dsqrt         fz_ws.l(dsqrt_noumaal.o)
    0x0800d590   0x0800d590   0x000001d4   Code   RO         1145    x$fpl$dsub          fz_ws.l(daddsub_clz.o)
    0x0800d764   0x0800d764   0x00000056   Code   RO         1173    x$fpl$f2d           fz_ws.l(f2d.o)
    0x0800d7ba   0x0800d7ba   0x00000002   PAD
    0x0800d7bc   0x0800d7bc   0x000000c4   Code   RO         1175    x$fpl$fadd          fz_ws.l(faddsub_clz.o)
    0x0800d880   0x0800d880   0x00000184   Code   RO         1182    x$fpl$fdiv          fz_ws.l(fdiv.o)
    0x0800da04   0x0800da04   0x00000036   Code   RO         1185    x$fpl$ffix          fz_ws.l(ffix.o)
    0x0800da3a   0x0800da3a   0x00000002   PAD
    0x0800da3c   0x0800da3c   0x00000030   Code   RO         1190    x$fpl$fflt          fz_ws.l(fflt_clz.o)
    0x0800da6c   0x0800da6c   0x0000008c   Code   RO         1331    x$fpl$fnaninf       fz_ws.l(fnaninf.o)
    0x0800daf8   0x0800daf8   0x0000000a   Code   RO         1333    x$fpl$fretinf       fz_ws.l(fretinf.o)
    0x0800db02   0x0800db02   0x00000002   PAD
    0x0800db04   0x0800db04   0x000000ea   Code   RO         1177    x$fpl$fsub          fz_ws.l(faddsub_clz.o)
    0x0800dbee   0x0800dbee   0x00000004   Code   RO         1335    x$fpl$printf1       fz_ws.l(printf1.o)
    0x0800dbf2   0x0800dbf2   0x00000004   Code   RO         1337    x$fpl$printf2       fz_ws.l(printf2.o)
    0x0800dbf6   0x0800dbf6   0x00000064   Code   RO         1424    x$fpl$retnan        fz_ws.l(retnan.o)
    0x0800dc5a   0x0800dc5a   0x0000005c   Code   RO         1195    x$fpl$scalbn        fz_ws.l(scalbn.o)
    0x0800dcb6   0x0800dcb6   0x00000030   Code   RO         1482    x$fpl$trapveneer    fz_ws.l(trapv.o)
    0x0800dce6   0x0800dce6   0x00000000   Code   RO         1343    x$fpl$usenofp       fz_ws.l(usenofp.o)
    0x0800dce6   0x0800dce6   0x00000010   Data   RO          219    .constdata          led.o
    0x0800dcf6   0x0800dcf6   0x00000818   Data   RO          234    .constdata          oled.o
    0x0800e50e   0x0800e50e   0x00000100   Data   RO          582    .constdata          cpu_core.o
    0x0800e60e   0x0800e60e   0x00000002   PAD
    0x0800e610   0x0800e610   0x00000094   Data   RO          678    .constdata          lib_str.o
    0x0800e6a4   0x0800e6a4   0x00000094   Data   RO          709    .constdata          os_cfg_app.o
    0x0800e738   0x0800e738   0x00000028   Data   RO         1088    .constdata          c_w.l(_printf_hex_int_ll_ptr.o)
    0x0800e760   0x0800e760   0x00000011   Data   RO         1108    .constdata          c_w.l(__printf_flags_ss_wp.o)
    0x0800e771   0x0800e771   0x00000007   PAD
    0x0800e778   0x0800e778   0x00000050   Data   RO         1199    .constdata          m_ws.l(asin.o)
    0x0800e7c8   0x0800e7c8   0x00000098   Data   RO         1209    .constdata          m_ws.l(atan.o)
    0x0800e860   0x0800e860   0x00000088   Data   RO         1235    .constdata          m_ws.l(pow.o)
    0x0800e8e8   0x0800e8e8   0x00000008   Data   RO         1283    .constdata          c_w.l(_printf_wctomb.o)
    0x0800e8f0   0x0800e8f0   0x00000030   Data   RO         1345    .constdata          m_ws.l(cos_i.o)
    0x0800e920   0x0800e920   0x00000008   Data   RO         1365    .constdata          m_ws.l(qnan.o)
    0x0800e928   0x0800e928   0x000000c8   Data   RO         1368    .constdata          m_ws.l(rred.o)
    0x0800e9f0   0x0800e9f0   0x00000028   Data   RO         1372    .constdata          m_ws.l(sin_i.o)
    0x0800ea18   0x0800ea18   0x00000026   Data   RO         1406    .constdata          c_w.l(_printf_fp_hex.o)
    0x0800ea3e   0x0800ea3e   0x00000002   PAD
    0x0800ea40   0x0800ea40   0x00000094   Data   RO         1441    .constdata          c_w.l(bigflt0.o)
    0x0800ead4   0x0800ead4   0x00000020   Data   RO         1607    Region$$Table       anon$$obj.o
    0x0800eaf4   0x0800eaf4   0x0000001c   Data   RO         1465    locale$$data        c_w.l(lc_numeric_c.o)
    0x0800eb10   0x0800eb10   0x00000110   Data   RO         1488    locale$$data        c_w.l(lc_ctype_c.o)


    Execution Region RW_IRAM1 (Exec base: 0x20000000, Load base: 0x0800ec20, Size: 0x00004e10, Max: 0x00005000, ABSOLUTE, COMPRESSED[0x00000124])

    Exec Addr    Load Addr    Size         Type   Attr      Idx    E Section Name        Object

    0x20000000   COMPRESSED   0x00000018   Data   RW            3    .data               main.o
    0x20000018   COMPRESSED   0x00000014   Data   RW          201    .data               system_stm32f10x.o
    0x2000002c   COMPRESSED   0x00000240   Data   RW          235    .data               oled.o
    0x2000026c   COMPRESSED   0x00000001   Data   RW          283    .data               esp8266.o
    0x2000026d   COMPRESSED   0x00000001   PAD
    0x2000026e   COMPRESSED   0x00000004   Data   RW          332    .data               delay.o
    0x20000272   COMPRESSED   0x00000001   Data   RW          365    .data               usart1.o
    0x20000273   COMPRESSED   0x00000001   PAD
    0x20000274   COMPRESSED   0x00000004   Data   RW          366    .data               usart1.o
    0x20000278   COMPRESSED   0x00000001   Data   RW          390    .data               usart2.o
    0x20000279   COMPRESSED   0x00000004   Data   RW          406    .data               usart3.o
    0x2000027d   COMPRESSED   0x00000014   Data   RW          510    .data               stm32f10x_rcc.o
    0x20000291   COMPRESSED   0x00000003   PAD
    0x20000294   COMPRESSED   0x00000004   Data   RW          584    .data               cpu_core.o
    0x20000298   COMPRESSED   0x00000004   Data   RW          660    .data               lib_mem.o
    0x2000029c   COMPRESSED   0x00000008   Data   RW          828    .data               os_prio.o
    0x200002a4   COMPRESSED   0x00000004   Data   RW          940    .data               os_var.o
    0x200002a8   COMPRESSED   0x00000004   Data   RW          941    .data               os_var.o
    0x200002ac   COMPRESSED   0x00000004   Data   RW          942    .data               os_var.o
    0x200002b0   COMPRESSED   0x00000004   Data   RW          943    .data               os_var.o
    0x200002b4   COMPRESSED   0x00000004   Data   RW          944    .data               os_var.o
    0x200002b8   COMPRESSED   0x00000004   Data   RW          945    .data               os_var.o
    0x200002bc   COMPRESSED   0x00000004   Data   RW          946    .data               os_var.o
    0x200002c0   COMPRESSED   0x00000004   Data   RW          947    .data               os_var.o
    0x200002c4   COMPRESSED   0x00000001   Data   RW          948    .data               os_var.o
    0x200002c5   COMPRESSED   0x00000001   Data   RW          949    .data               os_var.o
    0x200002c6   COMPRESSED   0x00000002   PAD
    0x200002c8   COMPRESSED   0x00000004   Data   RW          950    .data               os_var.o
    0x200002cc   COMPRESSED   0x00000004   Data   RW          951    .data               os_var.o
    0x200002d0   COMPRESSED   0x00000002   Data   RW          952    .data               os_var.o
    0x200002d2   COMPRESSED   0x00000002   Data   RW          953    .data               os_var.o
    0x200002d4   COMPRESSED   0x00000002   Data   RW          954    .data               os_var.o
    0x200002d6   COMPRESSED   0x00000002   PAD
    0x200002d8   COMPRESSED   0x00000004   Data   RW          955    .data               os_var.o
    0x200002dc   COMPRESSED   0x00000004   Data   RW          956    .data               os_var.o
    0x200002e0   COMPRESSED   0x00000002   Data   RW          957    .data               os_var.o
    0x200002e2   COMPRESSED   0x00000002   PAD
    0x200002e4   COMPRESSED   0x00000004   Data   RW          958    .data               os_var.o
    0x200002e8   COMPRESSED   0x00000002   Data   RW          959    .data               os_var.o
    0x200002ea   COMPRESSED   0x00000002   PAD
    0x200002ec   COMPRESSED   0x00000004   Data   RW          960    .data               os_var.o
    0x200002f0   COMPRESSED   0x00000002   Data   RW          961    .data               os_var.o
    0x200002f2   COMPRESSED   0x00000001   Data   RW          962    .data               os_var.o
    0x200002f3   COMPRESSED   0x00000001   Data   RW          963    .data               os_var.o
    0x200002f4   COMPRESSED   0x00000001   Data   RW          964    .data               os_var.o
    0x200002f5   COMPRESSED   0x00000003   PAD
    0x200002f8   COMPRESSED   0x00000004   Data   RW          965    .data               os_var.o
    0x200002fc   COMPRESSED   0x00000002   Data   RW          966    .data               os_var.o
    0x200002fe   COMPRESSED   0x00000002   PAD
    0x20000300   COMPRESSED   0x00000004   Data   RW          967    .data               os_var.o
    0x20000304   COMPRESSED   0x00000004   Data   RW          968    .data               os_var.o
    0x20000308   COMPRESSED   0x00000004   Data   RW          969    .data               os_var.o
    0x2000030c   COMPRESSED   0x00000001   Data   RW          970    .data               os_var.o
    0x2000030d   COMPRESSED   0x00000003   PAD
    0x20000310   COMPRESSED   0x00000004   Data   RW          971    .data               os_var.o
    0x20000314   COMPRESSED   0x00000001   Data   RW          972    .data               os_var.o
    0x20000315   COMPRESSED   0x00000003   PAD
    0x20000318   COMPRESSED   0x00000004   Data   RW          973    .data               os_var.o
    0x2000031c   COMPRESSED   0x00000002   Data   RW          974    .data               os_var.o
    0x2000031e   COMPRESSED   0x00000001   Data   RW          975    .data               os_var.o
    0x2000031f   COMPRESSED   0x00000001   PAD
    0x20000320   COMPRESSED   0x00000002   Data   RW          976    .data               os_var.o
    0x20000322   COMPRESSED   0x00000002   Data   RW          977    .data               os_var.o
    0x20000324   COMPRESSED   0x00000004   Data   RW          978    .data               os_var.o
    0x20000328   COMPRESSED   0x00000004   Data   RW          979    .data               os_var.o
    0x2000032c   COMPRESSED   0x00000004   Data   RW          980    .data               os_var.o
    0x20000330   COMPRESSED   0x00000001   Data   RW          981    .data               os_var.o
    0x20000331   COMPRESSED   0x00000003   PAD
    0x20000334   COMPRESSED   0x00000004   Data   RW          982    .data               os_var.o
    0x20000338   COMPRESSED   0x00000004   Data   RW          983    .data               os_var.o
    0x2000033c   COMPRESSED   0x00000004   Data   RW          984    .data               os_var.o
    0x20000340   COMPRESSED   0x00000002   Data   RW          985    .data               os_var.o
    0x20000342   COMPRESSED   0x00000001   Data   RW          986    .data               os_var.o
    0x20000343   COMPRESSED   0x00000001   PAD
    0x20000344   COMPRESSED   0x00000004   Data   RW          987    .data               os_var.o
    0x20000348   COMPRESSED   0x00000004   Data   RW          988    .data               os_var.o
    0x2000034c   COMPRESSED   0x00000004   Data   RW          989    .data               os_var.o
    0x20000350   COMPRESSED   0x00000002   Data   RW          990    .data               os_var.o
    0x20000352   COMPRESSED   0x00000002   PAD
    0x20000354   COMPRESSED   0x00000004   Data   RW          991    .data               os_var.o
    0x20000358   COMPRESSED   0x00000004   Data   RW          992    .data               os_var.o
    0x2000035c   COMPRESSED   0x00000004   Data   RW          993    .data               os_var.o
    0x20000360   COMPRESSED   0x00000004   Data   RW          994    .data               os_var.o
    0x20000364   COMPRESSED   0x00000004   Data   RW          995    .data               os_var.o
    0x20000368   COMPRESSED   0x00000004   Data   RW          996    .data               os_var.o
    0x2000036c   COMPRESSED   0x00000004   Data   RW         1013    .data               os_cpu_c.o
    0x20000370   COMPRESSED   0x00000004   Data   RW         1119    .data               c_w.l(strtok.o)
    0x20000374        -       0x000018f8   Zero   RW            2    .bss                main.o
    0x20001c6c        -       0x00000190   Zero   RW          364    .bss                usart1.o
    0x20001dfc        -       0x00000190   Zero   RW          389    .bss                usart2.o
    0x20001f8c        -       0x00000258   Zero   RW          405    .bss                usart3.o
    0x200021e4        -       0x00000010   Zero   RW          581    .bss                cpu_core.o
    0x200021f4        -       0x00000448   Zero   RW          659    .bss                lib_mem.o
    0x2000263c        -       0x00000200   Zero   RW          699    .bss                os_cfg_app.o
    0x2000283c        -       0x00000140   Zero   RW          700    .bss                os_cfg_app.o
    0x2000297c        -       0x00000200   Zero   RW          701    .bss                os_cfg_app.o
    0x20002b7c        -       0x00000200   Zero   RW          702    .bss                os_cfg_app.o
    0x20002d7c        -       0x00000640   Zero   RW          703    .bss                os_cfg_app.o
    0x200033bc        -       0x00000200   Zero   RW          704    .bss                os_cfg_app.o
    0x200035bc        -       0x00000200   Zero   RW          705    .bss                os_cfg_app.o
    0x200037bc        -       0x00000088   Zero   RW          706    .bss                os_cfg_app.o
    0x20003844        -       0x00000200   Zero   RW          707    .bss                os_cfg_app.o
    0x20003a44        -       0x00000088   Zero   RW          708    .bss                os_cfg_app.o
    0x20003acc        -       0x000000c4   Zero   RW          933    .bss                os_var.o
    0x20003b90        -       0x000000c4   Zero   RW          934    .bss                os_var.o
    0x20003c54        -       0x0000000c   Zero   RW          935    .bss                os_var.o
    0x20003c60        -       0x00000300   Zero   RW          936    .bss                os_var.o
    0x20003f60        -       0x000000c4   Zero   RW          937    .bss                os_var.o
    0x20004024        -       0x000000c4   Zero   RW          938    .bss                os_var.o
    0x200040e8        -       0x000000c4   Zero   RW          939    .bss                os_var.o
    0x200041ac        -       0x00000060   Zero   RW         1427    .bss                c_w.l(libspace.o)
    0x2000420c   COMPRESSED   0x00000004   PAD
    0x20004210        -       0x00000400   Zero   RW          467    HEAP                startup_stm32f10x_md.o
    0x20004610        -       0x00000800   Zero   RW          466    STACK               startup_stm32f10x_md.o


==============================================================================

Image component sizes


      Code (inc. data)   RO Data    RW Data    ZI Data      Debug   Object Name

       104         12          0          0          0       1729   bsp.o
        52          0          0          0          0        324   cpu_a.o
       444         12        256          4         16      14057   cpu_core.o
       280         28          0          4          0       2431   delay.o
       992        372          0          1          0       3692   esp8266.o
       288         26          0          0          0       1505   gps.o
       344         52          0          0          0       1144   hmc5883l.o
       940         86          0          0          0       4808   iic.o
        64          6          0          0          0        578   iwdg.o
       148          8         16          0          0       1386   led.o
       346          0          0          0          0       4338   lib_ascii.o
      1640         26          0          4       1096      22264   lib_mem.o
       544          0          0          0          0        468   lib_mem_a.o
      1448          4        148          0          0      12472   lib_str.o
      2504        340          0         24       6392     276257   main.o
       176         14          0          0          0       1901   misc.o
       860         12       2072        576          0       5063   oled.o
         2          0        148          0       5264      20778   os_cfg_app.o
      2780        268          0          0          0      13303   os_core.o
       152         32          0          0          0        380   os_cpu_a.o
       392         64          0          4          0       3585   os_cpu_c.o
         2          0          0          0          0        446   os_dbg.o
      1896         80          0          0          0       8197   os_flag.o
       808        146          0          0          0       2596   os_int.o
       372         20          0          0          0       2576   os_mem.o
       392         14          0          0          0       3023   os_msg.o
      1768         92          0          0          0       6048   os_mutex.o
       112          6          0          8          0       1800   os_prio.o
      1552         66          0          0          0       6530   os_q.o
      1364         58          0          0          0       6510   os_sem.o
      1024        146          0          0          0       2969   os_stat.o
      3884        216          0          0          0      15422   os_task.o
       848         82          0          0          0       3651   os_tick.o
       784         42          0          0          0       3417   os_time.o
      1628        128          0          0          0       6726   os_tmr.o
         0          0          0        174       1760      19317   os_var.o
        64         26        236          0       3072        780   startup_stm32f10x_md.o
       612         36          0          0          0       6025   stm32f10x_gpio.o
        14          0          0          0          0        955   stm32f10x_it.o
        60          6          0          0          0       1305   stm32f10x_iwdg.o
       696         32          0         20          0       8992   stm32f10x_rcc.o
       808         22          0          0          0       8888   stm32f10x_usart.o
         0          0          0          0          0         32   sys.o
       344         34          0         20          0       1731   system_stm32f10x.o
       540         18          0          5        400       5985   usart1.o
       312         18          0          1        400       2330   usart2.o
       648         66          0          4        600       3964   usart3.o
      1380         88          0          0          0       4275   utils.o

    ----------------------------------------------------------------------
     36420       2804       2910        880      19000     526953   Object Totals
         0          0         32          0          0          0   (incl. Generated)
         8          0          2         31          0          0   (incl. Padding)

    ----------------------------------------------------------------------

      Code (inc. data)   RO Data    RW Data    ZI Data      Debug   Library Member Name

        60          8          0          0          0         84   __0sscanf.o
        24          4          0          0          0         84   __2printf.o
        44          6          0          0          0         84   __2sprintf.o
        90          0          0          0          0          0   __dczerorl2.o
         8          0          0          0          0         68   __main.o
       392          4         17          0          0         92   __printf_flags_ss_wp.o
        14          0          0          0          0         68   __printf_wp.o
         0          0          0          0          0          0   __rtentry.o
        12          0          0          0          0          0   __rtentry2.o
         6          0          0          0          0          0   __rtentry4.o
        52          8          0          0          0          0   __scatter.o
        28          0          0          0          0          0   __scatter_zi.o
        28          0          0          0          0         68   _chval.o
         6          0          0          0          0          0   _printf_a.o
         6          0          0          0          0          0   _printf_c.o
        44          0          0          0          0        108   _printf_char.o
        48          6          0          0          0         96   _printf_char_common.o
        36          4          0          0          0         80   _printf_char_file.o
        40          0          0          0          0         68   _printf_charcount.o
         6          0          0          0          0          0   _printf_d.o
       120         16          0          0          0         92   _printf_dec.o
         6          0          0          0          0          0   _printf_e.o
         6          0          0          0          0          0   _printf_f.o
      1054          0          0          0          0        216   _printf_fp_dec.o
       764          8         38          0          0        100   _printf_fp_hex.o
       128         16          0          0          0         84   _printf_fp_infnan.o
         6          0          0          0          0          0   _printf_g.o
       148          4         40          0          0        160   _printf_hex_int_ll_ptr.o
         6          0          0          0          0          0   _printf_i.o
       178          0          0          0          0         88   _printf_intcommon.o
        10          0          0          0          0          0   _printf_l.o
         6          0          0          0          0          0   _printf_lc.o
        10          0          0          0          0          0   _printf_ll.o
         6          0          0          0          0          0   _printf_lld.o
         6          0          0          0          0          0   _printf_lli.o
         6          0          0          0          0          0   _printf_llo.o
         6          0          0          0          0          0   _printf_llu.o
         6          0          0          0          0          0   _printf_llx.o
       124         16          0          0          0         92   _printf_longlong_dec.o
         6          0          0          0          0          0   _printf_ls.o
         6          0          0          0          0          0   _printf_n.o
         6          0          0          0          0          0   _printf_o.o
       112         10          0          0          0        124   _printf_oct_int_ll.o
         6          0          0          0          0          0   _printf_p.o
        78          0          0          0          0        108   _printf_pad.o
         0          0          0          0          0          0   _printf_percent.o
         4          0          0          0          0          0   _printf_percent_end.o
         6          0          0          0          0          0   _printf_s.o
        82          0          0          0          0         80   _printf_str.o
        36          0          0          0          0         84   _printf_truncate.o
         6          0          0          0          0          0   _printf_u.o
        44          0          0          0          0        108   _printf_wchar.o
       188          6          8          0          0         92   _printf_wctomb.o
         6          0          0          0          0          0   _printf_x.o
        22          0          0          0          0        100   _rserrno.o
       884          6          0          0          0        100   _scanf.o
       332          0          0          0          0         96   _scanf_int.o
        64          0          0          0          0         84   _sgetc.o
        10          0          0          0          0         68   _sputc.o
        64          0          0          0          0         92   _wcrtomb.o
       228          4        148          0          0         96   bigflt0.o
      1936        128          0          0          0        672   btod.o
        18          0          0          0          0         80   exit.o
         8          0          0          0          0         68   ferror.o
         6          0          0          0          0        152   heapauxi.o
        18          0          0          0          0         76   isspace.o
        44         10        272          0          0         76   lc_ctype_c.o
        44         10         28          0          0         76   lc_numeric_c.o
         2          0          0          0          0          0   libinit.o
        30          0          0          0          0          0   libinit2.o
         2          0          0          0          0          0   libshutdown.o
         2          0          0          0          0          0   libshutdown2.o
         8          4          0          0         96         68   libspace.o
       138          0          0          0          0         80   lludiv10.o
       238          0          0          0          0        100   lludivv7m.o
        16          4          0          0          0         76   rt_ctype_table.o
         8          4          0          0          0         68   rt_errno_addr_intlibspace.o
         8          4          0          0          0         68   rt_locale_intlibspace.o
        68          0          0          0          0         68   rt_memclr.o
        78          0          0          0          0         80   rt_memclr_w.o
       138          0          0          0          0         68   rt_memcpy_v6.o
       100          0          0          0          0         80   rt_memcpy_w.o
         2          0          0          0          0          0   rtexit.o
        10          0          0          0          0          0   rtexit2.o
        44          8          0          0          0         84   scanf_char.o
        24          0          0          0          0         68   strcat.o
       128          0          0          0          0         68   strcmpv7m.o
        72          0          0          0          0         80   strcpy.o
        32          0          0          0          0         80   strcspn.o
        28          0          0          0          0         80   strspn.o
        36          0          0          0          0         80   strstr.o
        12          6          0          4          0         68   strtok.o
        68          4          0          0          0         84   strtok_int.o
        74          0          0          0          0         80   sys_stackheap_outer.o
         2          0          0          0          0         68   use_no_semi.o
         2          0          0          0          0         68   use_no_semi_2.o
        36          4          0          0          0         76   vsprintf.o
        98          4          0          0          0         92   d2f.o
       826         16          0          0          0        348   daddsub_clz.o
        16          4          0          0          0         68   dcheck1.o
        24          0          0          0          0         68   dcmpi.o
       688        140          0          0          0        208   ddiv.o
        94          4          0          0          0         92   dfix.o
        90          4          0          0          0         92   dfixu.o
        84          0          0          0          0        136   dflt_clz.o
       120          4          0          0          0         92   dleqf.o
       340         12          0          0          0        104   dmul.o
       156          4          0          0          0         92   dnaninf.o
        12          0          0          0          0         68   dretinf.o
       108          0          0          0          0         80   drleqf.o
       460         56          0          0          0        120   dsqrt_noumaal.o
        86          4          0          0          0         84   f2d.o
       430          8          0          0          0        168   faddsub_clz.o
       388         76          0          0          0         96   fdiv.o
        54          4          0          0          0         84   ffix.o
        48          0          0          0          0         68   fflt_clz.o
       140          4          0          0          0         84   fnaninf.o
        10          0          0          0          0         68   fretinf.o
         4          0          0          0          0         68   printf1.o
         4          0          0          0          0         68   printf2.o
       100          0          0          0          0         68   retnan.o
        92          0          0          0          0         68   scalbn.o
        48          0          0          0          0         68   trapv.o
         0          0          0          0          0          0   usenofp.o
       624         52         80          0          0        168   asin.o
       544         70        152          0          0        124   atan.o
       384         38          0          0          0        144   atan2.o
       156          8          0          0          0        104   cos.o
       252         22         48          0          0        124   cos_i.o
        68         10          0          0          0        408   dunder.o
        40          0          0          0          0         68   fpclassify.o
       170          0          0          0          0         96   poly.o
      2520        190        136          0          0        324   pow.o
         0          0          8          0          0          0   qnan.o
       904         76        200          0          0        140   rred.o
       160         10          0          0          0        108   sin.o
       236         12         40          0          0        128   sin_i.o
        76          0          0          0          0         84   sqrt.o

    ----------------------------------------------------------------------
     19894       1144       1224          4        100      10576   Library Totals
        30          0          9          0          4          0   (incl. Padding)

    ----------------------------------------------------------------------

      Code (inc. data)   RO Data    RW Data    ZI Data      Debug   Library Name

      9210        312        551          4         96       5904   c_w.l
      4520        344          0          0          0       2652   fz_ws.l
      6134        488        664          0          0       2020   m_ws.l

    ----------------------------------------------------------------------
     19894       1144       1224          4        100      10576   Library Totals

    ----------------------------------------------------------------------

==============================================================================


      Code (inc. data)   RO Data    RW Data    ZI Data      Debug   

     56314       3948       4134        884      19100     526605   Grand Totals
     56314       3948       4134        292      19100     526605   ELF Image Totals (compressed)
     56314       3948       4134        292          0          0   ROM Totals

==============================================================================

    Total RO  Size (Code + RO Data)                60448 (  59.03kB)
    Total RW  Size (RW Data + ZI Data)             19984 (  19.52kB)
    Total ROM Size (Code + RO Data + RW Data)      60740 (  59.32kB)

==============================================================================

